
Antz-RAW.elf:     file format elf32-avr

Sections:
Idx Name          Size      VMA       LMA       File off  Algn
  0 .data         0000003e  00800100  000011ae  00001242  2**0
                  CONTENTS, ALLOC, LOAD, DATA
  1 .text         000011ae  00000000  00000000  00000094  2**1
                  CONTENTS, ALLOC, LOAD, READONLY, CODE
  2 .bss          00000016  0080013e  0080013e  00001280  2**0
                  ALLOC
  3 .comment      00000060  00000000  00000000  00001280  2**0
                  CONTENTS, READONLY
  4 .note.gnu.avr.deviceinfo 00000040  00000000  00000000  000012e0  2**2
                  CONTENTS, READONLY
  5 .debug_info   000005f4  00000000  00000000  00001320  2**0
                  CONTENTS, READONLY, DEBUGGING
  6 .debug_abbrev 000005a2  00000000  00000000  00001914  2**0
                  CONTENTS, READONLY, DEBUGGING
  7 .debug_line   00000133  00000000  00000000  00001eb6  2**0
                  CONTENTS, READONLY, DEBUGGING
  8 .debug_str    00000208  00000000  00000000  00001fe9  2**0
                  CONTENTS, READONLY, DEBUGGING

Disassembly of section .text:

00000000 <__vectors>:
       0:	0c 94 36 00 	jmp	0x6c	; 0x6c <__dtors_end>
       4:	0c 94 5e 00 	jmp	0xbc	; 0xbc <__bad_interrupt>
       8:	0c 94 5e 00 	jmp	0xbc	; 0xbc <__bad_interrupt>
       c:	0c 94 5e 00 	jmp	0xbc	; 0xbc <__bad_interrupt>
      10:	0c 94 5e 00 	jmp	0xbc	; 0xbc <__bad_interrupt>
      14:	0c 94 5e 00 	jmp	0xbc	; 0xbc <__bad_interrupt>
      18:	0c 94 5e 00 	jmp	0xbc	; 0xbc <__bad_interrupt>
      1c:	0c 94 5e 00 	jmp	0xbc	; 0xbc <__bad_interrupt>
      20:	0c 94 5e 00 	jmp	0xbc	; 0xbc <__bad_interrupt>
      24:	0c 94 5e 00 	jmp	0xbc	; 0xbc <__bad_interrupt>
      28:	0c 94 5e 00 	jmp	0xbc	; 0xbc <__bad_interrupt>
      2c:	0c 94 5e 00 	jmp	0xbc	; 0xbc <__bad_interrupt>
      30:	0c 94 5e 00 	jmp	0xbc	; 0xbc <__bad_interrupt>
      34:	0c 94 5e 00 	jmp	0xbc	; 0xbc <__bad_interrupt>
      38:	0c 94 5e 00 	jmp	0xbc	; 0xbc <__bad_interrupt>
      3c:	0c 94 5e 00 	jmp	0xbc	; 0xbc <__bad_interrupt>
      40:	0c 94 5e 00 	jmp	0xbc	; 0xbc <__bad_interrupt>
      44:	0c 94 5e 00 	jmp	0xbc	; 0xbc <__bad_interrupt>
      48:	0c 94 5e 00 	jmp	0xbc	; 0xbc <__bad_interrupt>
      4c:	0c 94 5e 00 	jmp	0xbc	; 0xbc <__bad_interrupt>
      50:	0c 94 5e 00 	jmp	0xbc	; 0xbc <__bad_interrupt>
      54:	0c 94 5e 00 	jmp	0xbc	; 0xbc <__bad_interrupt>
      58:	0c 94 5e 00 	jmp	0xbc	; 0xbc <__bad_interrupt>
      5c:	0c 94 5e 00 	jmp	0xbc	; 0xbc <__bad_interrupt>
      60:	0c 94 5e 00 	jmp	0xbc	; 0xbc <__bad_interrupt>
      64:	0c 94 5e 00 	jmp	0xbc	; 0xbc <__bad_interrupt>

00000068 <__ctors_start>:
      68:	f5 05       	cpc	r31, r5

0000006a <__ctors_end>:
      6a:	04 06       	cpc	r0, r20

0000006c <__dtors_end>:
      6c:	11 24       	eor	r1, r1
      6e:	1f be       	out	0x3f, r1	; 63
      70:	cf ef       	ldi	r28, 0xFF	; 255
      72:	d8 e0       	ldi	r29, 0x08	; 8
      74:	de bf       	out	0x3e, r29	; 62
      76:	cd bf       	out	0x3d, r28	; 61

00000078 <__do_copy_data>:
      78:	11 e0       	ldi	r17, 0x01	; 1
      7a:	a0 e0       	ldi	r26, 0x00	; 0
      7c:	b1 e0       	ldi	r27, 0x01	; 1
      7e:	ee ea       	ldi	r30, 0xAE	; 174
      80:	f1 e1       	ldi	r31, 0x11	; 17
      82:	02 c0       	rjmp	.+4      	; 0x88 <__do_copy_data+0x10>
      84:	05 90       	lpm	r0, Z+
      86:	0d 92       	st	X+, r0
      88:	ae 33       	cpi	r26, 0x3E	; 62
      8a:	b1 07       	cpc	r27, r17
      8c:	d9 f7       	brne	.-10     	; 0x84 <__do_copy_data+0xc>

0000008e <__do_clear_bss>:
      8e:	21 e0       	ldi	r18, 0x01	; 1
      90:	ae e3       	ldi	r26, 0x3E	; 62
      92:	b1 e0       	ldi	r27, 0x01	; 1
      94:	01 c0       	rjmp	.+2      	; 0x98 <.do_clear_bss_start>

00000096 <.do_clear_bss_loop>:
      96:	1d 92       	st	X+, r1

00000098 <.do_clear_bss_start>:
      98:	a4 35       	cpi	r26, 0x54	; 84
      9a:	b2 07       	cpc	r27, r18
      9c:	e1 f7       	brne	.-8      	; 0x96 <.do_clear_bss_loop>

0000009e <__do_global_ctors>:
      9e:	10 e0       	ldi	r17, 0x00	; 0
      a0:	c5 e3       	ldi	r28, 0x35	; 53
      a2:	d0 e0       	ldi	r29, 0x00	; 0
      a4:	04 c0       	rjmp	.+8      	; 0xae <__do_global_ctors+0x10>
      a6:	21 97       	sbiw	r28, 0x01	; 1
      a8:	fe 01       	movw	r30, r28
      aa:	0e 94 68 06 	call	0xcd0	; 0xcd0 <__tablejump2__>
      ae:	c4 33       	cpi	r28, 0x34	; 52
      b0:	d1 07       	cpc	r29, r17
      b2:	c9 f7       	brne	.-14     	; 0xa6 <__do_global_ctors+0x8>
      b4:	0e 94 5c 04 	call	0x8b8	; 0x8b8 <main>
      b8:	0c 94 ca 08 	jmp	0x1194	; 0x1194 <__do_global_dtors>

000000bc <__bad_interrupt>:
      bc:	0c 94 00 00 	jmp	0	; 0x0 <__vectors>

000000c0 <_ZN4ustl8memblock6unlinkEv>:
      c0:	fc 01       	movw	r30, r24
      c2:	17 82       	std	Z+7, r1	; 0x07
      c4:	16 82       	std	Z+6, r1	; 0x06
      c6:	13 82       	std	Z+3, r1	; 0x03
      c8:	12 82       	std	Z+2, r1	; 0x02
      ca:	15 82       	std	Z+5, r1	; 0x05
      cc:	14 82       	std	Z+4, r1	; 0x04
      ce:	08 95       	ret

000000d0 <_ZNK4ustl8memblock19minimumFreeCapacityEv>:
      d0:	80 e0       	ldi	r24, 0x00	; 0
      d2:	90 e0       	ldi	r25, 0x00	; 0
      d4:	08 95       	ret

000000d6 <_ZN4ustl8memblockC1Ev>:
      d6:	fc 01       	movw	r30, r24
      d8:	13 82       	std	Z+3, r1	; 0x03
      da:	12 82       	std	Z+2, r1	; 0x02
      dc:	15 82       	std	Z+5, r1	; 0x05
      de:	14 82       	std	Z+4, r1	; 0x04
      e0:	86 e3       	ldi	r24, 0x36	; 54
      e2:	91 e0       	ldi	r25, 0x01	; 1
      e4:	91 83       	std	Z+1, r25	; 0x01
      e6:	80 83       	st	Z, r24
      e8:	17 82       	std	Z+7, r1	; 0x07
      ea:	16 82       	std	Z+6, r1	; 0x06
      ec:	08 95       	ret

000000ee <_ZN4ustl8memblock10deallocateEv>:
      ee:	cf 93       	push	r28
      f0:	df 93       	push	r29
      f2:	ec 01       	movw	r28, r24
      f4:	8e 81       	ldd	r24, Y+6	; 0x06
      f6:	9f 81       	ldd	r25, Y+7	; 0x07
      f8:	89 2b       	or	r24, r25
      fa:	21 f0       	breq	.+8      	; 0x104 <_ZN4ustl8memblock10deallocateEv+0x16>
      fc:	8a 81       	ldd	r24, Y+2	; 0x02
      fe:	9b 81       	ldd	r25, Y+3	; 0x03
     100:	0e 94 15 07 	call	0xe2a	; 0xe2a <free>
     104:	e8 81       	ld	r30, Y
     106:	f9 81       	ldd	r31, Y+1	; 0x01
     108:	04 80       	ldd	r0, Z+4	; 0x04
     10a:	f5 81       	ldd	r31, Z+5	; 0x05
     10c:	e0 2d       	mov	r30, r0
     10e:	ce 01       	movw	r24, r28
     110:	df 91       	pop	r29
     112:	cf 91       	pop	r28
     114:	09 94       	ijmp

00000116 <_ZN4ustl8memblockD1Ev>:
     116:	26 e3       	ldi	r18, 0x36	; 54
     118:	31 e0       	ldi	r19, 0x01	; 1
     11a:	fc 01       	movw	r30, r24
     11c:	31 83       	std	Z+1, r19	; 0x01
     11e:	20 83       	st	Z, r18
     120:	0c 94 77 00 	jmp	0xee	; 0xee <_ZN4ustl8memblock10deallocateEv>

00000124 <_ZN4ustl8memblockD0Ev>:
     124:	cf 93       	push	r28
     126:	df 93       	push	r29
     128:	ec 01       	movw	r28, r24
     12a:	0e 94 8b 00 	call	0x116	; 0x116 <_ZN4ustl8memblockD1Ev>
     12e:	ce 01       	movw	r24, r28
     130:	df 91       	pop	r29
     132:	cf 91       	pop	r28
     134:	0c 94 08 06 	jmp	0xc10	; 0xc10 <_ZdlPv>

00000138 <_ZN4ustl8memblock6manageEPvj>:
     138:	0f 93       	push	r16
     13a:	1f 93       	push	r17
     13c:	cf 93       	push	r28
     13e:	df 93       	push	r29
     140:	ec 01       	movw	r28, r24
     142:	8a 01       	movw	r16, r20
     144:	0e 94 71 02 	call	0x4e2	; 0x4e2 <_ZN4ustl8cmemlink4linkEPKvj>
     148:	1f 83       	std	Y+7, r17	; 0x07
     14a:	0e 83       	std	Y+6, r16	; 0x06
     14c:	df 91       	pop	r29
     14e:	cf 91       	pop	r28
     150:	1f 91       	pop	r17
     152:	0f 91       	pop	r16
     154:	08 95       	ret

00000156 <_ZN4ustl8memblock7reserveEjb>:
     156:	af 92       	push	r10
     158:	bf 92       	push	r11
     15a:	cf 92       	push	r12
     15c:	df 92       	push	r13
     15e:	ef 92       	push	r14
     160:	ff 92       	push	r15
     162:	0f 93       	push	r16
     164:	1f 93       	push	r17
     166:	cf 93       	push	r28
     168:	df 93       	push	r29
     16a:	1f 92       	push	r1
     16c:	cd b7       	in	r28, 0x3d	; 61
     16e:	de b7       	in	r29, 0x3e	; 62
     170:	7c 01       	movw	r14, r24
     172:	5b 01       	movw	r10, r22
     174:	dc 01       	movw	r26, r24
     176:	ed 91       	ld	r30, X+
     178:	fc 91       	ld	r31, X
     17a:	06 80       	ldd	r0, Z+6	; 0x06
     17c:	f7 81       	ldd	r31, Z+7	; 0x07
     17e:	e0 2d       	mov	r30, r0
     180:	49 83       	std	Y+1, r20	; 0x01
     182:	09 95       	icall
     184:	a8 0e       	add	r10, r24
     186:	b9 1e       	adc	r11, r25
     188:	f7 01       	movw	r30, r14
     18a:	86 81       	ldd	r24, Z+6	; 0x06
     18c:	97 81       	ldd	r25, Z+7	; 0x07
     18e:	49 81       	ldd	r20, Y+1	; 0x01
     190:	8a 15       	cp	r24, r10
     192:	9b 05       	cpc	r25, r11
     194:	08 f0       	brcs	.+2      	; 0x198 <_ZN4ustl8memblock7reserveEjb+0x42>
     196:	57 c0       	rjmp	.+174    	; 0x246 <_ZN4ustl8memblock7reserveEjb+0xf0>
     198:	89 2b       	or	r24, r25
     19a:	19 f0       	breq	.+6      	; 0x1a2 <_ZN4ustl8memblock7reserveEjb+0x4c>
     19c:	c2 80       	ldd	r12, Z+2	; 0x02
     19e:	d3 80       	ldd	r13, Z+3	; 0x03
     1a0:	02 c0       	rjmp	.+4      	; 0x1a6 <_ZN4ustl8memblock7reserveEjb+0x50>
     1a2:	c1 2c       	mov	r12, r1
     1a4:	d1 2c       	mov	r13, r1
     1a6:	c5 01       	movw	r24, r10
     1a8:	a0 e0       	ldi	r26, 0x00	; 0
     1aa:	b0 e0       	ldi	r27, 0x00	; 0
     1ac:	01 97       	sbiw	r24, 0x01	; 1
     1ae:	a1 09       	sbc	r26, r1
     1b0:	b1 09       	sbc	r27, r1
     1b2:	8c 01       	movw	r16, r24
     1b4:	31 f0       	breq	.+12     	; 0x1c2 <_ZN4ustl8memblock7reserveEjb+0x6c>
     1b6:	0e 94 29 06 	call	0xc52	; 0xc52 <__clzhi2>
     1ba:	0f e1       	ldi	r16, 0x1F	; 31
     1bc:	10 e0       	ldi	r17, 0x00	; 0
     1be:	08 1b       	sub	r16, r24
     1c0:	19 0b       	sbc	r17, r25
     1c2:	20 e0       	ldi	r18, 0x00	; 0
     1c4:	30 e0       	ldi	r19, 0x00	; 0
     1c6:	0f 31       	cpi	r16, 0x1F	; 31
     1c8:	11 05       	cpc	r17, r1
     1ca:	21 05       	cpc	r18, r1
     1cc:	31 05       	cpc	r19, r1
     1ce:	18 f0       	brcs	.+6      	; 0x1d6 <_ZN4ustl8memblock7reserveEjb+0x80>
     1d0:	0f ef       	ldi	r16, 0xFF	; 255
     1d2:	1f ef       	ldi	r17, 0xFF	; 255
     1d4:	98 01       	movw	r18, r16
     1d6:	41 11       	cpse	r20, r1
     1d8:	0a c0       	rjmp	.+20     	; 0x1ee <_ZN4ustl8memblock7reserveEjb+0x98>
     1da:	0f 5f       	subi	r16, 0xFF	; 255
     1dc:	1f 4f       	sbci	r17, 0xFF	; 255
     1de:	81 e0       	ldi	r24, 0x01	; 1
     1e0:	90 e0       	ldi	r25, 0x00	; 0
     1e2:	5c 01       	movw	r10, r24
     1e4:	02 c0       	rjmp	.+4      	; 0x1ea <_ZN4ustl8memblock7reserveEjb+0x94>
     1e6:	aa 0c       	add	r10, r10
     1e8:	bb 1c       	adc	r11, r11
     1ea:	0a 95       	dec	r16
     1ec:	e2 f7       	brpl	.-8      	; 0x1e6 <_ZN4ustl8memblock7reserveEjb+0x90>
     1ee:	b5 01       	movw	r22, r10
     1f0:	c6 01       	movw	r24, r12
     1f2:	0e 94 9e 07 	call	0xf3c	; 0xf3c <realloc>
     1f6:	00 97       	sbiw	r24, 0x00	; 0
     1f8:	31 f1       	breq	.+76     	; 0x246 <_ZN4ustl8memblock7reserveEjb+0xf0>
     1fa:	d7 01       	movw	r26, r14
     1fc:	12 96       	adiw	r26, 0x02	; 2
     1fe:	ed 91       	ld	r30, X+
     200:	fc 91       	ld	r31, X
     202:	13 97       	sbiw	r26, 0x03	; 3
     204:	14 96       	adiw	r26, 0x04	; 4
     206:	4d 91       	ld	r20, X+
     208:	5c 91       	ld	r21, X
     20a:	15 97       	sbiw	r26, 0x05	; 5
     20c:	cd 28       	or	r12, r13
     20e:	11 f4       	brne	.+4      	; 0x214 <_ZN4ustl8memblock7reserveEjb+0xbe>
     210:	30 97       	sbiw	r30, 0x00	; 0
     212:	41 f4       	brne	.+16     	; 0x224 <_ZN4ustl8memblock7reserveEjb+0xce>
     214:	bc 01       	movw	r22, r24
     216:	c7 01       	movw	r24, r14
     218:	0e 94 71 02 	call	0x4e2	; 0x4e2 <_ZN4ustl8cmemlink4linkEPKvj>
     21c:	f7 01       	movw	r30, r14
     21e:	b7 82       	std	Z+7, r11	; 0x07
     220:	a6 82       	std	Z+6, r10	; 0x06
     222:	11 c0       	rjmp	.+34     	; 0x246 <_ZN4ustl8memblock7reserveEjb+0xf0>
     224:	ba 01       	movw	r22, r20
     226:	6f 5f       	subi	r22, 0xFF	; 255
     228:	7f 4f       	sbci	r23, 0xFF	; 255
     22a:	95 01       	movw	r18, r10
     22c:	6a 15       	cp	r22, r10
     22e:	7b 05       	cpc	r23, r11
     230:	08 f4       	brcc	.+2      	; 0x234 <_ZN4ustl8memblock7reserveEjb+0xde>
     232:	9b 01       	movw	r18, r22
     234:	28 0f       	add	r18, r24
     236:	39 1f       	adc	r19, r25
     238:	dc 01       	movw	r26, r24
     23a:	a2 17       	cp	r26, r18
     23c:	b3 07       	cpc	r27, r19
     23e:	51 f3       	breq	.-44     	; 0x214 <_ZN4ustl8memblock7reserveEjb+0xbe>
     240:	61 91       	ld	r22, Z+
     242:	6d 93       	st	X+, r22
     244:	fa cf       	rjmp	.-12     	; 0x23a <_ZN4ustl8memblock7reserveEjb+0xe4>
     246:	0f 90       	pop	r0
     248:	df 91       	pop	r29
     24a:	cf 91       	pop	r28
     24c:	1f 91       	pop	r17
     24e:	0f 91       	pop	r16
     250:	ff 90       	pop	r15
     252:	ef 90       	pop	r14
     254:	df 90       	pop	r13
     256:	cf 90       	pop	r12
     258:	bf 90       	pop	r11
     25a:	af 90       	pop	r10
     25c:	08 95       	ret

0000025e <_ZN4ustl8memblock6resizeEjb>:
     25e:	cf 92       	push	r12
     260:	df 92       	push	r13
     262:	ef 92       	push	r14
     264:	ff 92       	push	r15
     266:	0f 93       	push	r16
     268:	1f 93       	push	r17
     26a:	cf 93       	push	r28
     26c:	df 93       	push	r29
     26e:	1f 92       	push	r1
     270:	cd b7       	in	r28, 0x3d	; 61
     272:	de b7       	in	r29, 0x3e	; 62
     274:	6c 01       	movw	r12, r24
     276:	8b 01       	movw	r16, r22
     278:	dc 01       	movw	r26, r24
     27a:	16 96       	adiw	r26, 0x06	; 6
     27c:	ed 90       	ld	r14, X+
     27e:	fc 90       	ld	r15, X
     280:	17 97       	sbiw	r26, 0x07	; 7
     282:	ed 91       	ld	r30, X+
     284:	fc 91       	ld	r31, X
     286:	06 80       	ldd	r0, Z+6	; 0x06
     288:	f7 81       	ldd	r31, Z+7	; 0x07
     28a:	e0 2d       	mov	r30, r0
     28c:	49 83       	std	Y+1, r20	; 0x01
     28e:	09 95       	icall
     290:	80 0f       	add	r24, r16
     292:	91 1f       	adc	r25, r17
     294:	49 81       	ldd	r20, Y+1	; 0x01
     296:	e8 16       	cp	r14, r24
     298:	f9 06       	cpc	r15, r25
     29a:	20 f4       	brcc	.+8      	; 0x2a4 <_ZN4ustl8memblock6resizeEjb+0x46>
     29c:	b8 01       	movw	r22, r16
     29e:	c6 01       	movw	r24, r12
     2a0:	0e 94 ab 00 	call	0x156	; 0x156 <_ZN4ustl8memblock7reserveEjb>
     2a4:	f6 01       	movw	r30, r12
     2a6:	15 83       	std	Z+5, r17	; 0x05
     2a8:	04 83       	std	Z+4, r16	; 0x04
     2aa:	0f 90       	pop	r0
     2ac:	df 91       	pop	r29
     2ae:	cf 91       	pop	r28
     2b0:	1f 91       	pop	r17
     2b2:	0f 91       	pop	r16
     2b4:	ff 90       	pop	r15
     2b6:	ef 90       	pop	r14
     2b8:	df 90       	pop	r13
     2ba:	cf 90       	pop	r12
     2bc:	08 95       	ret

000002be <_ZN4ustl8memblockC1Ej>:
     2be:	fc 01       	movw	r30, r24
     2c0:	13 82       	std	Z+3, r1	; 0x03
     2c2:	12 82       	std	Z+2, r1	; 0x02
     2c4:	15 82       	std	Z+5, r1	; 0x05
     2c6:	14 82       	std	Z+4, r1	; 0x04
     2c8:	26 e3       	ldi	r18, 0x36	; 54
     2ca:	31 e0       	ldi	r19, 0x01	; 1
     2cc:	31 83       	std	Z+1, r19	; 0x01
     2ce:	20 83       	st	Z, r18
     2d0:	17 82       	std	Z+7, r1	; 0x07
     2d2:	16 82       	std	Z+6, r1	; 0x06
     2d4:	41 e0       	ldi	r20, 0x01	; 1
     2d6:	0c 94 2f 01 	jmp	0x25e	; 0x25e <_ZN4ustl8memblock6resizeEjb>

000002da <_ZN4ustl8memblock6assignEPKvj>:
     2da:	ef 92       	push	r14
     2dc:	ff 92       	push	r15
     2de:	0f 93       	push	r16
     2e0:	1f 93       	push	r17
     2e2:	cf 93       	push	r28
     2e4:	df 93       	push	r29
     2e6:	8c 01       	movw	r16, r24
     2e8:	7b 01       	movw	r14, r22
     2ea:	ea 01       	movw	r28, r20
     2ec:	41 e0       	ldi	r20, 0x01	; 1
     2ee:	be 01       	movw	r22, r28
     2f0:	0e 94 2f 01 	call	0x25e	; 0x25e <_ZN4ustl8memblock6resizeEjb>
     2f4:	d8 01       	movw	r26, r16
     2f6:	12 96       	adiw	r26, 0x02	; 2
     2f8:	ed 91       	ld	r30, X+
     2fa:	fc 91       	ld	r31, X
     2fc:	13 97       	sbiw	r26, 0x03	; 3
     2fe:	d7 01       	movw	r26, r14
     300:	ce 0f       	add	r28, r30
     302:	df 1f       	adc	r29, r31
     304:	ec 17       	cp	r30, r28
     306:	fd 07       	cpc	r31, r29
     308:	19 f0       	breq	.+6      	; 0x310 <_ZN4ustl8memblock6assignEPKvj+0x36>
     30a:	8d 91       	ld	r24, X+
     30c:	81 93       	st	Z+, r24
     30e:	fa cf       	rjmp	.-12     	; 0x304 <_ZN4ustl8memblock6assignEPKvj+0x2a>
     310:	df 91       	pop	r29
     312:	cf 91       	pop	r28
     314:	1f 91       	pop	r17
     316:	0f 91       	pop	r16
     318:	ff 90       	pop	r15
     31a:	ef 90       	pop	r14
     31c:	08 95       	ret

0000031e <_ZN4ustl8memblockC1EPKvj>:
     31e:	fc 01       	movw	r30, r24
     320:	13 82       	std	Z+3, r1	; 0x03
     322:	12 82       	std	Z+2, r1	; 0x02
     324:	15 82       	std	Z+5, r1	; 0x05
     326:	14 82       	std	Z+4, r1	; 0x04
     328:	26 e3       	ldi	r18, 0x36	; 54
     32a:	31 e0       	ldi	r19, 0x01	; 1
     32c:	31 83       	std	Z+1, r19	; 0x01
     32e:	20 83       	st	Z, r18
     330:	17 82       	std	Z+7, r1	; 0x07
     332:	16 82       	std	Z+6, r1	; 0x06
     334:	0c 94 6d 01 	jmp	0x2da	; 0x2da <_ZN4ustl8memblock6assignEPKvj>

00000338 <_ZN4ustl8memblockC1ERKNS_8cmemlinkE>:
     338:	fc 01       	movw	r30, r24
     33a:	13 82       	std	Z+3, r1	; 0x03
     33c:	12 82       	std	Z+2, r1	; 0x02
     33e:	15 82       	std	Z+5, r1	; 0x05
     340:	14 82       	std	Z+4, r1	; 0x04
     342:	26 e3       	ldi	r18, 0x36	; 54
     344:	31 e0       	ldi	r19, 0x01	; 1
     346:	31 83       	std	Z+1, r19	; 0x01
     348:	20 83       	st	Z, r18
     34a:	17 82       	std	Z+7, r1	; 0x07
     34c:	16 82       	std	Z+6, r1	; 0x06
     34e:	fb 01       	movw	r30, r22
     350:	44 81       	ldd	r20, Z+4	; 0x04
     352:	55 81       	ldd	r21, Z+5	; 0x05
     354:	62 81       	ldd	r22, Z+2	; 0x02
     356:	73 81       	ldd	r23, Z+3	; 0x03
     358:	0c 94 6d 01 	jmp	0x2da	; 0x2da <_ZN4ustl8memblock6assignEPKvj>

0000035c <_ZN4ustl8memblock9copy_linkEv>:
     35c:	ef 92       	push	r14
     35e:	ff 92       	push	r15
     360:	0f 93       	push	r16
     362:	1f 93       	push	r17
     364:	cf 93       	push	r28
     366:	df 93       	push	r29
     368:	ec 01       	movw	r28, r24
     36a:	0a 81       	ldd	r16, Y+2	; 0x02
     36c:	1b 81       	ldd	r17, Y+3	; 0x03
     36e:	ec 80       	ldd	r14, Y+4	; 0x04
     370:	fd 80       	ldd	r15, Y+5	; 0x05
     372:	8e 81       	ldd	r24, Y+6	; 0x06
     374:	9f 81       	ldd	r25, Y+7	; 0x07
     376:	89 2b       	or	r24, r25
     378:	39 f4       	brne	.+14     	; 0x388 <_ZN4ustl8memblock9copy_linkEv+0x2c>
     37a:	e8 81       	ld	r30, Y
     37c:	f9 81       	ldd	r31, Y+1	; 0x01
     37e:	04 80       	ldd	r0, Z+4	; 0x04
     380:	f5 81       	ldd	r31, Z+5	; 0x05
     382:	e0 2d       	mov	r30, r0
     384:	ce 01       	movw	r24, r28
     386:	09 95       	icall
     388:	a7 01       	movw	r20, r14
     38a:	b8 01       	movw	r22, r16
     38c:	ce 01       	movw	r24, r28
     38e:	df 91       	pop	r29
     390:	cf 91       	pop	r28
     392:	1f 91       	pop	r17
     394:	0f 91       	pop	r16
     396:	ff 90       	pop	r15
     398:	ef 90       	pop	r14
     39a:	0c 94 6d 01 	jmp	0x2da	; 0x2da <_ZN4ustl8memblock6assignEPKvj>

0000039e <_ZN4ustl8memblockC1ERKNS_7memlinkE>:
     39e:	fc 01       	movw	r30, r24
     3a0:	13 82       	std	Z+3, r1	; 0x03
     3a2:	12 82       	std	Z+2, r1	; 0x02
     3a4:	15 82       	std	Z+5, r1	; 0x05
     3a6:	14 82       	std	Z+4, r1	; 0x04
     3a8:	26 e3       	ldi	r18, 0x36	; 54
     3aa:	31 e0       	ldi	r19, 0x01	; 1
     3ac:	31 83       	std	Z+1, r19	; 0x01
     3ae:	20 83       	st	Z, r18
     3b0:	17 82       	std	Z+7, r1	; 0x07
     3b2:	16 82       	std	Z+6, r1	; 0x06
     3b4:	fb 01       	movw	r30, r22
     3b6:	44 81       	ldd	r20, Z+4	; 0x04
     3b8:	55 81       	ldd	r21, Z+5	; 0x05
     3ba:	62 81       	ldd	r22, Z+2	; 0x02
     3bc:	73 81       	ldd	r23, Z+3	; 0x03
     3be:	0c 94 6d 01 	jmp	0x2da	; 0x2da <_ZN4ustl8memblock6assignEPKvj>

000003c2 <_ZN4ustl8memblockC1ERKS0_>:
     3c2:	fc 01       	movw	r30, r24
     3c4:	13 82       	std	Z+3, r1	; 0x03
     3c6:	12 82       	std	Z+2, r1	; 0x02
     3c8:	15 82       	std	Z+5, r1	; 0x05
     3ca:	14 82       	std	Z+4, r1	; 0x04
     3cc:	26 e3       	ldi	r18, 0x36	; 54
     3ce:	31 e0       	ldi	r19, 0x01	; 1
     3d0:	31 83       	std	Z+1, r19	; 0x01
     3d2:	20 83       	st	Z, r18
     3d4:	17 82       	std	Z+7, r1	; 0x07
     3d6:	16 82       	std	Z+6, r1	; 0x06
     3d8:	fb 01       	movw	r30, r22
     3da:	44 81       	ldd	r20, Z+4	; 0x04
     3dc:	55 81       	ldd	r21, Z+5	; 0x05
     3de:	62 81       	ldd	r22, Z+2	; 0x02
     3e0:	73 81       	ldd	r23, Z+3	; 0x03
     3e2:	0c 94 6d 01 	jmp	0x2da	; 0x2da <_ZN4ustl8memblock6assignEPKvj>

000003e6 <_ZN4ustl8memblock13shrink_to_fitEv>:
     3e6:	cf 93       	push	r28
     3e8:	df 93       	push	r29
     3ea:	fc 01       	movw	r30, r24
     3ec:	26 81       	ldd	r18, Z+6	; 0x06
     3ee:	37 81       	ldd	r19, Z+7	; 0x07
     3f0:	23 2b       	or	r18, r19
     3f2:	91 f0       	breq	.+36     	; 0x418 <__LOCK_REGION_LENGTH__+0x18>
     3f4:	ec 01       	movw	r28, r24
     3f6:	64 81       	ldd	r22, Z+4	; 0x04
     3f8:	75 81       	ldd	r23, Z+5	; 0x05
     3fa:	82 81       	ldd	r24, Z+2	; 0x02
     3fc:	93 81       	ldd	r25, Z+3	; 0x03
     3fe:	0e 94 9e 07 	call	0xf3c	; 0xf3c <realloc>
     402:	2c 81       	ldd	r18, Y+4	; 0x04
     404:	3d 81       	ldd	r19, Y+5	; 0x05
     406:	00 97       	sbiw	r24, 0x00	; 0
     408:	19 f4       	brne	.+6      	; 0x410 <__LOCK_REGION_LENGTH__+0x10>
     40a:	21 15       	cp	r18, r1
     40c:	31 05       	cpc	r19, r1
     40e:	21 f4       	brne	.+8      	; 0x418 <__LOCK_REGION_LENGTH__+0x18>
     410:	3f 83       	std	Y+7, r19	; 0x07
     412:	2e 83       	std	Y+6, r18	; 0x06
     414:	9b 83       	std	Y+3, r25	; 0x03
     416:	8a 83       	std	Y+2, r24	; 0x02
     418:	df 91       	pop	r29
     41a:	cf 91       	pop	r28
     41c:	08 95       	ret

0000041e <_ZN4ustl8memblock6insertEPKcj>:
     41e:	ef 92       	push	r14
     420:	ff 92       	push	r15
     422:	0f 93       	push	r16
     424:	1f 93       	push	r17
     426:	cf 93       	push	r28
     428:	df 93       	push	r29
     42a:	ec 01       	movw	r28, r24
     42c:	7a 01       	movw	r14, r20
     42e:	8a 81       	ldd	r24, Y+2	; 0x02
     430:	9b 81       	ldd	r25, Y+3	; 0x03
     432:	8b 01       	movw	r16, r22
     434:	08 1b       	sub	r16, r24
     436:	19 0b       	sbc	r17, r25
     438:	6c 81       	ldd	r22, Y+4	; 0x04
     43a:	7d 81       	ldd	r23, Y+5	; 0x05
     43c:	64 0f       	add	r22, r20
     43e:	75 1f       	adc	r23, r21
     440:	40 e0       	ldi	r20, 0x00	; 0
     442:	ce 01       	movw	r24, r28
     444:	0e 94 2f 01 	call	0x25e	; 0x25e <_ZN4ustl8memblock6resizeEjb>
     448:	8a 81       	ldd	r24, Y+2	; 0x02
     44a:	9b 81       	ldd	r25, Y+3	; 0x03
     44c:	2c 81       	ldd	r18, Y+4	; 0x04
     44e:	3d 81       	ldd	r19, Y+5	; 0x05
     450:	ac 01       	movw	r20, r24
     452:	42 0f       	add	r20, r18
     454:	53 1f       	adc	r21, r19
     456:	ba 01       	movw	r22, r20
     458:	6e 19       	sub	r22, r14
     45a:	7f 09       	sbc	r23, r15
     45c:	80 0f       	add	r24, r16
     45e:	91 1f       	adc	r25, r17
     460:	0e 94 d2 02 	call	0x5a4	; 0x5a4 <rotate_fast>
     464:	8a 81       	ldd	r24, Y+2	; 0x02
     466:	9b 81       	ldd	r25, Y+3	; 0x03
     468:	80 0f       	add	r24, r16
     46a:	91 1f       	adc	r25, r17
     46c:	df 91       	pop	r29
     46e:	cf 91       	pop	r28
     470:	1f 91       	pop	r17
     472:	0f 91       	pop	r16
     474:	ff 90       	pop	r15
     476:	ef 90       	pop	r14
     478:	08 95       	ret

0000047a <_ZN4ustl8memblock5eraseEPKcj>:
     47a:	ef 92       	push	r14
     47c:	ff 92       	push	r15
     47e:	0f 93       	push	r16
     480:	1f 93       	push	r17
     482:	cf 93       	push	r28
     484:	df 93       	push	r29
     486:	8c 01       	movw	r16, r24
     488:	7a 01       	movw	r14, r20
     48a:	fc 01       	movw	r30, r24
     48c:	82 81       	ldd	r24, Z+2	; 0x02
     48e:	93 81       	ldd	r25, Z+3	; 0x03
     490:	eb 01       	movw	r28, r22
     492:	c8 1b       	sub	r28, r24
     494:	d9 0b       	sbc	r29, r25
     496:	64 81       	ldd	r22, Z+4	; 0x04
     498:	75 81       	ldd	r23, Z+5	; 0x05
     49a:	64 1b       	sub	r22, r20
     49c:	75 0b       	sbc	r23, r21
     49e:	40 e0       	ldi	r20, 0x00	; 0
     4a0:	c8 01       	movw	r24, r16
     4a2:	0e 94 ab 00 	call	0x156	; 0x156 <_ZN4ustl8memblock7reserveEjb>
     4a6:	f8 01       	movw	r30, r16
     4a8:	42 81       	ldd	r20, Z+2	; 0x02
     4aa:	53 81       	ldd	r21, Z+3	; 0x03
     4ac:	c4 0f       	add	r28, r20
     4ae:	d5 1f       	adc	r29, r21
     4b0:	84 81       	ldd	r24, Z+4	; 0x04
     4b2:	95 81       	ldd	r25, Z+5	; 0x05
     4b4:	48 0f       	add	r20, r24
     4b6:	59 1f       	adc	r21, r25
     4b8:	be 01       	movw	r22, r28
     4ba:	6e 0d       	add	r22, r14
     4bc:	7f 1d       	adc	r23, r15
     4be:	ce 01       	movw	r24, r28
     4c0:	0e 94 d2 02 	call	0x5a4	; 0x5a4 <rotate_fast>
     4c4:	f8 01       	movw	r30, r16
     4c6:	84 81       	ldd	r24, Z+4	; 0x04
     4c8:	95 81       	ldd	r25, Z+5	; 0x05
     4ca:	8e 19       	sub	r24, r14
     4cc:	9f 09       	sbc	r25, r15
     4ce:	95 83       	std	Z+5, r25	; 0x05
     4d0:	84 83       	std	Z+4, r24	; 0x04
     4d2:	ce 01       	movw	r24, r28
     4d4:	df 91       	pop	r29
     4d6:	cf 91       	pop	r28
     4d8:	1f 91       	pop	r17
     4da:	0f 91       	pop	r16
     4dc:	ff 90       	pop	r15
     4de:	ef 90       	pop	r14
     4e0:	08 95       	ret

000004e2 <_ZN4ustl8cmemlink4linkEPKvj>:
     4e2:	ef 92       	push	r14
     4e4:	ff 92       	push	r15
     4e6:	0f 93       	push	r16
     4e8:	1f 93       	push	r17
     4ea:	cf 93       	push	r28
     4ec:	df 93       	push	r29
     4ee:	61 15       	cp	r22, r1
     4f0:	71 05       	cpc	r23, r1
     4f2:	19 f4       	brne	.+6      	; 0x4fa <_ZN4ustl8cmemlink4linkEPKvj+0x18>
     4f4:	41 15       	cp	r20, r1
     4f6:	51 05       	cpc	r21, r1
     4f8:	69 f4       	brne	.+26     	; 0x514 <_ZN4ustl8cmemlink4linkEPKvj+0x32>
     4fa:	8a 01       	movw	r16, r20
     4fc:	7b 01       	movw	r14, r22
     4fe:	ec 01       	movw	r28, r24
     500:	e8 81       	ld	r30, Y
     502:	f9 81       	ldd	r31, Y+1	; 0x01
     504:	04 80       	ldd	r0, Z+4	; 0x04
     506:	f5 81       	ldd	r31, Z+5	; 0x05
     508:	e0 2d       	mov	r30, r0
     50a:	09 95       	icall
     50c:	fb 82       	std	Y+3, r15	; 0x03
     50e:	ea 82       	std	Y+2, r14	; 0x02
     510:	1d 83       	std	Y+5, r17	; 0x05
     512:	0c 83       	std	Y+4, r16	; 0x04
     514:	df 91       	pop	r29
     516:	cf 91       	pop	r28
     518:	1f 91       	pop	r17
     51a:	0f 91       	pop	r16
     51c:	ff 90       	pop	r15
     51e:	ef 90       	pop	r14
     520:	08 95       	ret

00000522 <_ZNK4ustl8cmemlink11stream_sizeEv>:
     522:	fc 01       	movw	r30, r24
     524:	84 81       	ldd	r24, Z+4	; 0x04
     526:	95 81       	ldd	r25, Z+5	; 0x05
     528:	a0 e0       	ldi	r26, 0x00	; 0
     52a:	b0 e0       	ldi	r27, 0x00	; 0
     52c:	04 96       	adiw	r24, 0x04	; 4
     52e:	a1 1d       	adc	r26, r1
     530:	b1 1d       	adc	r27, r1
     532:	08 95       	ret

00000534 <_ZNK4ustl8cmemlinkeqERKS0_>:
     534:	fc 01       	movw	r30, r24
     536:	db 01       	movw	r26, r22
     538:	14 96       	adiw	r26, 0x04	; 4
     53a:	4d 91       	ld	r20, X+
     53c:	5c 91       	ld	r21, X
     53e:	15 97       	sbiw	r26, 0x05	; 5
     540:	84 81       	ldd	r24, Z+4	; 0x04
     542:	95 81       	ldd	r25, Z+5	; 0x05
     544:	48 17       	cp	r20, r24
     546:	59 07       	cpc	r21, r25
     548:	71 f4       	brne	.+28     	; 0x566 <_ZNK4ustl8cmemlinkeqERKS0_+0x32>
     54a:	12 96       	adiw	r26, 0x02	; 2
     54c:	8d 91       	ld	r24, X+
     54e:	9c 91       	ld	r25, X
     550:	13 97       	sbiw	r26, 0x03	; 3
     552:	62 81       	ldd	r22, Z+2	; 0x02
     554:	73 81       	ldd	r23, Z+3	; 0x03
     556:	86 17       	cp	r24, r22
     558:	97 07       	cpc	r25, r23
     55a:	39 f0       	breq	.+14     	; 0x56a <_ZNK4ustl8cmemlinkeqERKS0_+0x36>
     55c:	0e 94 64 08 	call	0x10c8	; 0x10c8 <memcmp>
     560:	21 e0       	ldi	r18, 0x01	; 1
     562:	89 2b       	or	r24, r25
     564:	19 f0       	breq	.+6      	; 0x56c <_ZNK4ustl8cmemlinkeqERKS0_+0x38>
     566:	20 e0       	ldi	r18, 0x00	; 0
     568:	01 c0       	rjmp	.+2      	; 0x56c <_ZNK4ustl8cmemlinkeqERKS0_+0x38>
     56a:	21 e0       	ldi	r18, 0x01	; 1
     56c:	82 2f       	mov	r24, r18
     56e:	08 95       	ret

00000570 <fill_n8_fast>:
     570:	24 2f       	mov	r18, r20
     572:	30 e0       	ldi	r19, 0x00	; 0
     574:	ab 01       	movw	r20, r22
     576:	b9 01       	movw	r22, r18
     578:	0c 94 8c 08 	jmp	0x1118	; 0x1118 <memset>

0000057c <fill_n16_fast>:
     57c:	61 50       	subi	r22, 0x01	; 1
     57e:	71 09       	sbc	r23, r1
     580:	28 f0       	brcs	.+10     	; 0x58c <fill_n16_fast+0x10>
     582:	fc 01       	movw	r30, r24
     584:	41 93       	st	Z+, r20
     586:	51 93       	st	Z+, r21
     588:	cf 01       	movw	r24, r30
     58a:	f8 cf       	rjmp	.-16     	; 0x57c <fill_n16_fast>
     58c:	08 95       	ret

0000058e <fill_n32_fast>:
     58e:	61 50       	subi	r22, 0x01	; 1
     590:	71 09       	sbc	r23, r1
     592:	38 f0       	brcs	.+14     	; 0x5a2 <fill_n32_fast+0x14>
     594:	fc 01       	movw	r30, r24
     596:	21 93       	st	Z+, r18
     598:	31 93       	st	Z+, r19
     59a:	41 93       	st	Z+, r20
     59c:	51 93       	st	Z+, r21
     59e:	cf 01       	movw	r24, r30
     5a0:	f6 cf       	rjmp	.-20     	; 0x58e <fill_n32_fast>
     5a2:	08 95       	ret

000005a4 <rotate_fast>:
     5a4:	4f 92       	push	r4
     5a6:	5f 92       	push	r5
     5a8:	6f 92       	push	r6
     5aa:	7f 92       	push	r7
     5ac:	8f 92       	push	r8
     5ae:	9f 92       	push	r9
     5b0:	af 92       	push	r10
     5b2:	bf 92       	push	r11
     5b4:	cf 92       	push	r12
     5b6:	df 92       	push	r13
     5b8:	ef 92       	push	r14
     5ba:	ff 92       	push	r15
     5bc:	0f 93       	push	r16
     5be:	1f 93       	push	r17
     5c0:	cf 93       	push	r28
     5c2:	df 93       	push	r29
     5c4:	cd b7       	in	r28, 0x3d	; 61
     5c6:	de b7       	in	r29, 0x3e	; 62
     5c8:	6c 01       	movw	r12, r24
     5ca:	5b 01       	movw	r10, r22
     5cc:	3a 01       	movw	r6, r20
     5ce:	4d b6       	in	r4, 0x3d	; 61
     5d0:	5e b6       	in	r5, 0x3e	; 62
     5d2:	8b 01       	movw	r16, r22
     5d4:	08 1b       	sub	r16, r24
     5d6:	19 0b       	sbc	r17, r25
     5d8:	7a 01       	movw	r14, r20
     5da:	e6 1a       	sub	r14, r22
     5dc:	f7 0a       	sbc	r15, r23
     5de:	c8 01       	movw	r24, r16
     5e0:	e0 16       	cp	r14, r16
     5e2:	f1 06       	cpc	r15, r17
     5e4:	08 f4       	brcc	.+2      	; 0x5e8 <rotate_fast+0x44>
     5e6:	c7 01       	movw	r24, r14
     5e8:	00 97       	sbiw	r24, 0x00	; 0
     5ea:	89 f1       	breq	.+98     	; 0x64e <rotate_fast+0xaa>
     5ec:	2d b7       	in	r18, 0x3d	; 61
     5ee:	3e b7       	in	r19, 0x3e	; 62
     5f0:	28 1b       	sub	r18, r24
     5f2:	39 0b       	sbc	r19, r25
     5f4:	0f b6       	in	r0, 0x3f	; 63
     5f6:	f8 94       	cli
     5f8:	3e bf       	out	0x3e, r19	; 62
     5fa:	0f be       	out	0x3f, r0	; 63
     5fc:	2d bf       	out	0x3d, r18	; 61
     5fe:	8d b7       	in	r24, 0x3d	; 61
     600:	9e b7       	in	r25, 0x3e	; 62
     602:	01 96       	adiw	r24, 0x01	; 1
     604:	4c 01       	movw	r8, r24
     606:	e0 16       	cp	r14, r16
     608:	f1 06       	cpc	r15, r17
     60a:	80 f4       	brcc	.+32     	; 0x62c <rotate_fast+0x88>
     60c:	a7 01       	movw	r20, r14
     60e:	b5 01       	movw	r22, r10
     610:	c4 01       	movw	r24, r8
     612:	0e 94 71 08 	call	0x10e2	; 0x10e2 <memcpy>
     616:	a8 01       	movw	r20, r16
     618:	b6 01       	movw	r22, r12
     61a:	c3 01       	movw	r24, r6
     61c:	80 1b       	sub	r24, r16
     61e:	91 0b       	sbc	r25, r17
     620:	0e 94 7a 08 	call	0x10f4	; 0x10f4 <memmove>
     624:	a7 01       	movw	r20, r14
     626:	b4 01       	movw	r22, r8
     628:	c6 01       	movw	r24, r12
     62a:	0f c0       	rjmp	.+30     	; 0x64a <rotate_fast+0xa6>
     62c:	a8 01       	movw	r20, r16
     62e:	b6 01       	movw	r22, r12
     630:	c4 01       	movw	r24, r8
     632:	0e 94 71 08 	call	0x10e2	; 0x10e2 <memcpy>
     636:	a7 01       	movw	r20, r14
     638:	b5 01       	movw	r22, r10
     63a:	c6 01       	movw	r24, r12
     63c:	0e 94 71 08 	call	0x10e2	; 0x10e2 <memcpy>
     640:	a8 01       	movw	r20, r16
     642:	b4 01       	movw	r22, r8
     644:	c6 01       	movw	r24, r12
     646:	8e 0d       	add	r24, r14
     648:	9f 1d       	adc	r25, r15
     64a:	0e 94 71 08 	call	0x10e2	; 0x10e2 <memcpy>
     64e:	0f b6       	in	r0, 0x3f	; 63
     650:	f8 94       	cli
     652:	5e be       	out	0x3e, r5	; 62
     654:	0f be       	out	0x3f, r0	; 63
     656:	4d be       	out	0x3d, r4	; 61
     658:	df 91       	pop	r29
     65a:	cf 91       	pop	r28
     65c:	1f 91       	pop	r17
     65e:	0f 91       	pop	r16
     660:	ff 90       	pop	r15
     662:	ef 90       	pop	r14
     664:	df 90       	pop	r13
     666:	cf 90       	pop	r12
     668:	bf 90       	pop	r11
     66a:	af 90       	pop	r10
     66c:	9f 90       	pop	r9
     66e:	8f 90       	pop	r8
     670:	7f 90       	pop	r7
     672:	6f 90       	pop	r6
     674:	5f 90       	pop	r5
     676:	4f 90       	pop	r4
     678:	08 95       	ret

0000067a <_ZN8MIDI_CVMI15Antz_interfacesI13AVR_Antz_viewEE18get_bended_voltageEPKhm.isra.9.constprop.23>:
     67a:	0f 93       	push	r16
     67c:	1f 93       	push	r17
     67e:	64 32       	cpi	r22, 0x24	; 36
     680:	71 05       	cpc	r23, r1
     682:	81 05       	cpc	r24, r1
     684:	91 05       	cpc	r25, r1
     686:	60 f0       	brcs	.+24     	; 0x6a0 <_ZN8MIDI_CVMI15Antz_interfacesI13AVR_Antz_viewEE18get_bended_voltageEPKhm.isra.9.constprop.23+0x26>
     688:	dc 01       	movw	r26, r24
     68a:	cb 01       	movw	r24, r22
     68c:	80 36       	cpi	r24, 0x60	; 96
     68e:	91 05       	cpc	r25, r1
     690:	a1 05       	cpc	r26, r1
     692:	b1 05       	cpc	r27, r1
     694:	48 f0       	brcs	.+18     	; 0x6a8 <_ZN8MIDI_CVMI15Antz_interfacesI13AVR_Antz_viewEE18get_bended_voltageEPKhm.isra.9.constprop.23+0x2e>
     696:	8f e5       	ldi	r24, 0x5F	; 95
     698:	90 e0       	ldi	r25, 0x00	; 0
     69a:	a0 e0       	ldi	r26, 0x00	; 0
     69c:	b0 e0       	ldi	r27, 0x00	; 0
     69e:	04 c0       	rjmp	.+8      	; 0x6a8 <_ZN8MIDI_CVMI15Antz_interfacesI13AVR_Antz_viewEE18get_bended_voltageEPKhm.isra.9.constprop.23+0x2e>
     6a0:	84 e2       	ldi	r24, 0x24	; 36
     6a2:	90 e0       	ldi	r25, 0x00	; 0
     6a4:	a0 e0       	ldi	r26, 0x00	; 0
     6a6:	b0 e0       	ldi	r27, 0x00	; 0
     6a8:	40 91 4c 01 	lds	r20, 0x014C	; 0x80014c <__data_end+0xe>
     6ac:	20 91 4b 01 	lds	r18, 0x014B	; 0x80014b <__data_end+0xd>
     6b0:	30 e0       	ldi	r19, 0x00	; 0
     6b2:	30 52       	subi	r19, 0x20	; 32
     6b4:	50 e8       	ldi	r21, 0x80	; 128
     6b6:	45 9f       	mul	r20, r21
     6b8:	20 0d       	add	r18, r0
     6ba:	31 1d       	adc	r19, r1
     6bc:	11 24       	eor	r1, r1
     6be:	22 0f       	add	r18, r18
     6c0:	33 1f       	adc	r19, r19
     6c2:	89 01       	movw	r16, r18
     6c4:	33 0f       	add	r19, r19
     6c6:	22 0b       	sbc	r18, r18
     6c8:	33 0b       	sbc	r19, r19
     6ca:	84 97       	sbiw	r24, 0x24	; 36
     6cc:	a1 09       	sbc	r26, r1
     6ce:	b1 09       	sbc	r27, r1
     6d0:	5d e0       	ldi	r21, 0x0D	; 13
     6d2:	88 0f       	add	r24, r24
     6d4:	99 1f       	adc	r25, r25
     6d6:	aa 1f       	adc	r26, r26
     6d8:	bb 1f       	adc	r27, r27
     6da:	5a 95       	dec	r21
     6dc:	d1 f7       	brne	.-12     	; 0x6d2 <_ZN8MIDI_CVMI15Antz_interfacesI13AVR_Antz_viewEE18get_bended_voltageEPKhm.isra.9.constprop.23+0x58>
     6de:	a9 01       	movw	r20, r18
     6e0:	98 01       	movw	r18, r16
     6e2:	28 0f       	add	r18, r24
     6e4:	39 1f       	adc	r19, r25
     6e6:	4a 1f       	adc	r20, r26
     6e8:	5b 1f       	adc	r21, r27
     6ea:	af ef       	ldi	r26, 0xFF	; 255
     6ec:	bf e0       	ldi	r27, 0x0F	; 15
     6ee:	0e 94 3b 06 	call	0xc76	; 0xc76 <__muluhisi3>
     6f2:	20 e0       	ldi	r18, 0x00	; 0
     6f4:	30 e8       	ldi	r19, 0x80	; 128
     6f6:	47 e0       	ldi	r20, 0x07	; 7
     6f8:	50 e0       	ldi	r21, 0x00	; 0
     6fa:	0e 94 0a 06 	call	0xc14	; 0xc14 <__divmodsi4>
     6fe:	21 15       	cp	r18, r1
     700:	80 e1       	ldi	r24, 0x10	; 16
     702:	38 07       	cpc	r19, r24
     704:	41 05       	cpc	r20, r1
     706:	51 05       	cpc	r21, r1
     708:	44 f4       	brge	.+16     	; 0x71a <_ZN8MIDI_CVMI15Antz_interfacesI13AVR_Antz_viewEE18get_bended_voltageEPKhm.isra.9.constprop.23+0xa0>
     70a:	da 01       	movw	r26, r20
     70c:	c9 01       	movw	r24, r18
     70e:	57 ff       	sbrs	r21, 7
     710:	06 c0       	rjmp	.+12     	; 0x71e <_ZN8MIDI_CVMI15Antz_interfacesI13AVR_Antz_viewEE18get_bended_voltageEPKhm.isra.9.constprop.23+0xa4>
     712:	80 e0       	ldi	r24, 0x00	; 0
     714:	90 e0       	ldi	r25, 0x00	; 0
     716:	dc 01       	movw	r26, r24
     718:	02 c0       	rjmp	.+4      	; 0x71e <_ZN8MIDI_CVMI15Antz_interfacesI13AVR_Antz_viewEE18get_bended_voltageEPKhm.isra.9.constprop.23+0xa4>
     71a:	8f ef       	ldi	r24, 0xFF	; 255
     71c:	9f e0       	ldi	r25, 0x0F	; 15
     71e:	1f 91       	pop	r17
     720:	0f 91       	pop	r16
     722:	08 95       	ret

00000724 <_ZL10spi_updatejPVhh.constprop.22>:
     724:	cf 93       	push	r28
     726:	df 93       	push	r29
     728:	1f 92       	push	r1
     72a:	cd b7       	in	r28, 0x3d	; 61
     72c:	de b7       	in	r29, 0x3e	; 62
     72e:	69 83       	std	Y+1, r22	; 0x01
     730:	59 81       	ldd	r21, Y+1	; 0x01
     732:	45 b1       	in	r20, 0x05	; 5
     734:	21 e0       	ldi	r18, 0x01	; 1
     736:	30 e0       	ldi	r19, 0x00	; 0
     738:	02 c0       	rjmp	.+4      	; 0x73e <_ZL10spi_updatejPVhh.constprop.22+0x1a>
     73a:	22 0f       	add	r18, r18
     73c:	33 1f       	adc	r19, r19
     73e:	5a 95       	dec	r21
     740:	e2 f7       	brpl	.-8      	; 0x73a <_ZL10spi_updatejPVhh.constprop.22+0x16>
     742:	20 95       	com	r18
     744:	30 95       	com	r19
     746:	24 23       	and	r18, r20
     748:	25 b9       	out	0x05, r18	; 5
     74a:	90 63       	ori	r25, 0x30	; 48
     74c:	9e bd       	out	0x2e, r25	; 46
     74e:	0d b4       	in	r0, 0x2d	; 45
     750:	07 fe       	sbrs	r0, 7
     752:	fd cf       	rjmp	.-6      	; 0x74e <_ZL10spi_updatejPVhh.constprop.22+0x2a>
     754:	9e b5       	in	r25, 0x2e	; 46
     756:	8e bd       	out	0x2e, r24	; 46
     758:	0d b4       	in	r0, 0x2d	; 45
     75a:	07 fe       	sbrs	r0, 7
     75c:	fd cf       	rjmp	.-6      	; 0x758 <_ZL10spi_updatejPVhh.constprop.22+0x34>
     75e:	8e b5       	in	r24, 0x2e	; 46
     760:	39 81       	ldd	r19, Y+1	; 0x01
     762:	25 b1       	in	r18, 0x05	; 5
     764:	81 e0       	ldi	r24, 0x01	; 1
     766:	90 e0       	ldi	r25, 0x00	; 0
     768:	01 c0       	rjmp	.+2      	; 0x76c <_ZL10spi_updatejPVhh.constprop.22+0x48>
     76a:	88 0f       	add	r24, r24
     76c:	3a 95       	dec	r19
     76e:	ea f7       	brpl	.-6      	; 0x76a <_ZL10spi_updatejPVhh.constprop.22+0x46>
     770:	82 2b       	or	r24, r18
     772:	85 b9       	out	0x05, r24	; 5
     774:	0f 90       	pop	r0
     776:	df 91       	pop	r29
     778:	cf 91       	pop	r28
     77a:	08 95       	ret

0000077c <_ZN19MIDI_CVM_pitch_bendI15Antz_interfacesI13AVR_Antz_viewEE7processEPKh>:
     77c:	fb 01       	movw	r30, r22
     77e:	80 81       	ld	r24, Z
     780:	80 93 4b 01 	sts	0x014B, r24	; 0x80014b <__data_end+0xd>
     784:	81 81       	ldd	r24, Z+1	; 0x01
     786:	80 93 4c 01 	sts	0x014C, r24	; 0x80014c <__data_end+0xe>
     78a:	60 91 47 01 	lds	r22, 0x0147	; 0x800147 <__data_end+0x9>
     78e:	66 23       	and	r22, r22
     790:	41 f0       	breq	.+16     	; 0x7a2 <_ZN19MIDI_CVM_pitch_bendI15Antz_interfacesI13AVR_Antz_viewEE7processEPKh+0x26>
     792:	70 e0       	ldi	r23, 0x00	; 0
     794:	80 e0       	ldi	r24, 0x00	; 0
     796:	90 e0       	ldi	r25, 0x00	; 0
     798:	0e 94 3d 03 	call	0x67a	; 0x67a <_ZN8MIDI_CVMI15Antz_interfacesI13AVR_Antz_viewEE18get_bended_voltageEPKhm.isra.9.constprop.23>
     79c:	62 e0       	ldi	r22, 0x02	; 2
     79e:	0e 94 92 03 	call	0x724	; 0x724 <_ZL10spi_updatejPVhh.constprop.22>
     7a2:	60 91 4a 01 	lds	r22, 0x014A	; 0x80014a <__data_end+0xc>
     7a6:	66 23       	and	r22, r22
     7a8:	61 f0       	breq	.+24     	; 0x7c2 <_ZN19MIDI_CVM_pitch_bendI15Antz_interfacesI13AVR_Antz_viewEE7processEPKh+0x46>
     7aa:	80 91 48 01 	lds	r24, 0x0148	; 0x800148 <__data_end+0xa>
     7ae:	88 23       	and	r24, r24
     7b0:	41 f0       	breq	.+16     	; 0x7c2 <_ZN19MIDI_CVM_pitch_bendI15Antz_interfacesI13AVR_Antz_viewEE7processEPKh+0x46>
     7b2:	70 e0       	ldi	r23, 0x00	; 0
     7b4:	80 e0       	ldi	r24, 0x00	; 0
     7b6:	90 e0       	ldi	r25, 0x00	; 0
     7b8:	0e 94 3d 03 	call	0x67a	; 0x67a <_ZN8MIDI_CVMI15Antz_interfacesI13AVR_Antz_viewEE18get_bended_voltageEPKhm.isra.9.constprop.23>
     7bc:	67 e0       	ldi	r22, 0x07	; 7
     7be:	0c 94 92 03 	jmp	0x724	; 0x724 <_ZL10spi_updatejPVhh.constprop.22>
     7c2:	08 95       	ret

000007c4 <_ZN8MIDI_CVMI15Antz_interfacesI13AVR_Antz_viewEE13cv2_play_noteEm.isra.13>:
     7c4:	60 93 4a 01 	sts	0x014A, r22	; 0x80014a <__data_end+0xc>
     7c8:	10 92 49 01 	sts	0x0149, r1	; 0x800149 <__data_end+0xb>
     7cc:	41 9a       	sbi	0x08, 1	; 8
     7ce:	2c ed       	ldi	r18, 0xDC	; 220
     7d0:	26 0f       	add	r18, r22
     7d2:	2c 33       	cpi	r18, 0x3C	; 60
     7d4:	30 f4       	brcc	.+12     	; 0x7e2 <_ZN8MIDI_CVMI15Antz_interfacesI13AVR_Antz_viewEE13cv2_play_noteEm.isra.13+0x1e>
     7d6:	0e 94 3d 03 	call	0x67a	; 0x67a <_ZN8MIDI_CVMI15Antz_interfacesI13AVR_Antz_viewEE18get_bended_voltageEPKhm.isra.9.constprop.23>
     7da:	67 e0       	ldi	r22, 0x07	; 7
     7dc:	0e 94 92 03 	call	0x724	; 0x724 <_ZL10spi_updatejPVhh.constprop.22>
     7e0:	5a 9a       	sbi	0x0b, 2	; 11
     7e2:	08 95       	ret

000007e4 <_ZN8MIDI_CVMI15Antz_interfacesI13AVR_Antz_viewEE13cv1_play_noteEhh.isra.15>:
     7e4:	cf 93       	push	r28
     7e6:	80 93 47 01 	sts	0x0147, r24	; 0x800147 <__data_end+0x9>
     7ea:	10 92 46 01 	sts	0x0146, r1	; 0x800146 <__data_end+0x8>
     7ee:	41 9a       	sbi	0x08, 1	; 8
     7f0:	9c ed       	ldi	r25, 0xDC	; 220
     7f2:	98 0f       	add	r25, r24
     7f4:	9c 33       	cpi	r25, 0x3C	; 60
     7f6:	b0 f4       	brcc	.+44     	; 0x824 <_ZN8MIDI_CVMI15Antz_interfacesI13AVR_Antz_viewEE13cv1_play_noteEhh.isra.15+0x40>
     7f8:	c6 2f       	mov	r28, r22
     7fa:	68 2f       	mov	r22, r24
     7fc:	70 e0       	ldi	r23, 0x00	; 0
     7fe:	80 e0       	ldi	r24, 0x00	; 0
     800:	90 e0       	ldi	r25, 0x00	; 0
     802:	0e 94 3d 03 	call	0x67a	; 0x67a <_ZN8MIDI_CVMI15Antz_interfacesI13AVR_Antz_viewEE18get_bended_voltageEPKhm.isra.9.constprop.23>
     806:	62 e0       	ldi	r22, 0x02	; 2
     808:	0e 94 92 03 	call	0x724	; 0x724 <_ZL10spi_updatejPVhh.constprop.22>
     80c:	80 91 48 01 	lds	r24, 0x0148	; 0x800148 <__data_end+0xa>
     810:	81 11       	cpse	r24, r1
     812:	07 c0       	rjmp	.+14     	; 0x822 <_ZN8MIDI_CVMI15Antz_interfacesI13AVR_Antz_viewEE13cv1_play_noteEhh.isra.15+0x3e>
     814:	67 e0       	ldi	r22, 0x07	; 7
     816:	20 e2       	ldi	r18, 0x20	; 32
     818:	c2 9f       	mul	r28, r18
     81a:	c0 01       	movw	r24, r0
     81c:	11 24       	eor	r1, r1
     81e:	0e 94 92 03 	call	0x724	; 0x724 <_ZL10spi_updatejPVhh.constprop.22>
     822:	5a 9a       	sbi	0x0b, 2	; 11
     824:	cf 91       	pop	r28
     826:	08 95       	ret

00000828 <_ZN4ustl6vectorIhE6resizeEjb>:
     828:	0f 93       	push	r16
     82a:	1f 93       	push	r17
     82c:	cf 93       	push	r28
     82e:	df 93       	push	r29
     830:	ec 01       	movw	r28, r24
     832:	8b 01       	movw	r16, r22
     834:	8e 81       	ldd	r24, Y+6	; 0x06
     836:	9f 81       	ldd	r25, Y+7	; 0x07
     838:	86 17       	cp	r24, r22
     83a:	97 07       	cpc	r25, r23
     83c:	18 f4       	brcc	.+6      	; 0x844 <_ZN4ustl6vectorIhE6resizeEjb+0x1c>
     83e:	ce 01       	movw	r24, r28
     840:	0e 94 ab 00 	call	0x156	; 0x156 <_ZN4ustl8memblock7reserveEjb>
     844:	8c 81       	ldd	r24, Y+4	; 0x04
     846:	9d 81       	ldd	r25, Y+5	; 0x05
     848:	a8 01       	movw	r20, r16
     84a:	48 1b       	sub	r20, r24
     84c:	59 0b       	sbc	r21, r25
     84e:	57 ff       	sbrs	r21, 7
     850:	02 c0       	rjmp	.+4      	; 0x856 <_ZN4ustl6vectorIhE6resizeEjb+0x2e>
     852:	40 e0       	ldi	r20, 0x00	; 0
     854:	50 e0       	ldi	r21, 0x00	; 0
     856:	2a 81       	ldd	r18, Y+2	; 0x02
     858:	3b 81       	ldd	r19, Y+3	; 0x03
     85a:	60 e0       	ldi	r22, 0x00	; 0
     85c:	70 e0       	ldi	r23, 0x00	; 0
     85e:	82 0f       	add	r24, r18
     860:	93 1f       	adc	r25, r19
     862:	0e 94 8c 08 	call	0x1118	; 0x1118 <memset>
     866:	1d 83       	std	Y+5, r17	; 0x05
     868:	0c 83       	std	Y+4, r16	; 0x04
     86a:	df 91       	pop	r29
     86c:	cf 91       	pop	r28
     86e:	1f 91       	pop	r17
     870:	0f 91       	pop	r16
     872:	08 95       	ret

00000874 <_ZN11MIDI_status5resetEv>:
     874:	cf 93       	push	r28
     876:	df 93       	push	r29
     878:	ec 01       	movw	r28, r24
     87a:	41 e0       	ldi	r20, 0x01	; 1
     87c:	60 e0       	ldi	r22, 0x00	; 0
     87e:	70 e0       	ldi	r23, 0x00	; 0
     880:	0e 94 14 04 	call	0x828	; 0x828 <_ZN4ustl6vectorIhE6resizeEjb>
     884:	81 e0       	ldi	r24, 0x01	; 1
     886:	88 87       	std	Y+8, r24	; 0x08
     888:	19 86       	std	Y+9, r1	; 0x09
     88a:	1a 86       	std	Y+10, r1	; 0x0a
     88c:	8b 87       	std	Y+11, r24	; 0x0b
     88e:	1c 86       	std	Y+12, r1	; 0x0c
     890:	1d 86       	std	Y+13, r1	; 0x0d
     892:	80 e4       	ldi	r24, 0x40	; 64
     894:	8e 87       	std	Y+14, r24	; 0x0e
     896:	df 91       	pop	r29
     898:	cf 91       	pop	r28
     89a:	08 95       	ret

0000089c <_ZN22MIDI_CMM_all_notes_offI15Antz_interfacesI13AVR_Antz_viewEE7processEPKh>:
     89c:	fb 01       	movw	r30, r22
     89e:	80 81       	ld	r24, Z
     8a0:	8b 37       	cpi	r24, 0x7B	; 123
     8a2:	49 f4       	brne	.+18     	; 0x8b6 <_ZN22MIDI_CMM_all_notes_offI15Antz_interfacesI13AVR_Antz_viewEE7processEPKh+0x1a>
     8a4:	81 81       	ldd	r24, Z+1	; 0x01
     8a6:	81 11       	cpse	r24, r1
     8a8:	06 c0       	rjmp	.+12     	; 0x8b6 <_ZN22MIDI_CMM_all_notes_offI15Antz_interfacesI13AVR_Antz_viewEE7processEPKh+0x1a>
     8aa:	8e e3       	ldi	r24, 0x3E	; 62
     8ac:	91 e0       	ldi	r25, 0x01	; 1
     8ae:	0e 94 3a 04 	call	0x874	; 0x874 <_ZN11MIDI_status5resetEv>
     8b2:	41 98       	cbi	0x08, 1	; 8
     8b4:	5a 98       	cbi	0x0b, 2	; 11
     8b6:	08 95       	ret

000008b8 <main>:
     8b8:	39 9a       	sbi	0x07, 1	; 7
     8ba:	52 9a       	sbi	0x0a, 2	; 10
     8bc:	55 98       	cbi	0x0a, 5	; 10
     8be:	56 98       	cbi	0x0a, 6	; 10
     8c0:	57 98       	cbi	0x0a, 7	; 10
     8c2:	20 98       	cbi	0x04, 0	; 4
     8c4:	84 b1       	in	r24, 0x04	; 4
     8c6:	88 62       	ori	r24, 0x28	; 40
     8c8:	84 b9       	out	0x04, r24	; 4
     8ca:	22 9a       	sbi	0x04, 2	; 4
     8cc:	27 9a       	sbi	0x04, 7	; 4
     8ce:	2a 9a       	sbi	0x05, 2	; 5
     8d0:	2f 9a       	sbi	0x05, 7	; 5
     8d2:	8c b5       	in	r24, 0x2c	; 44
     8d4:	80 65       	ori	r24, 0x50	; 80
     8d6:	8c bd       	out	0x2c, r24	; 44
     8d8:	62 e0       	ldi	r22, 0x02	; 2
     8da:	80 e0       	ldi	r24, 0x00	; 0
     8dc:	90 e0       	ldi	r25, 0x00	; 0
     8de:	0e 94 92 03 	call	0x724	; 0x724 <_ZL10spi_updatejPVhh.constprop.22>
     8e2:	67 e0       	ldi	r22, 0x07	; 7
     8e4:	80 e0       	ldi	r24, 0x00	; 0
     8e6:	90 e0       	ldi	r25, 0x00	; 0
     8e8:	0e 94 92 03 	call	0x724	; 0x724 <_ZL10spi_updatejPVhh.constprop.22>
     8ec:	82 e0       	ldi	r24, 0x02	; 2
     8ee:	80 93 c0 00 	sts	0x00C0, r24	; 0x8000c0 <__TEXT_REGION_LENGTH__+0x7e00c0>
     8f2:	10 92 c5 00 	sts	0x00C5, r1	; 0x8000c5 <__TEXT_REGION_LENGTH__+0x7e00c5>
     8f6:	8f e1       	ldi	r24, 0x1F	; 31
     8f8:	80 93 c4 00 	sts	0x00C4, r24	; 0x8000c4 <__TEXT_REGION_LENGTH__+0x7e00c4>
     8fc:	80 e1       	ldi	r24, 0x10	; 16
     8fe:	80 93 c1 00 	sts	0x00C1, r24	; 0x8000c1 <__TEXT_REGION_LENGTH__+0x7e00c1>
     902:	8e e0       	ldi	r24, 0x0E	; 14
     904:	80 93 c2 00 	sts	0x00C2, r24	; 0x8000c2 <__TEXT_REGION_LENGTH__+0x7e00c2>
     908:	10 92 4d 01 	sts	0x014D, r1	; 0x80014d <_ZL11MIDI_buffer>
     90c:	10 92 4e 01 	sts	0x014E, r1	; 0x80014e <_ZL11MIDI_buffer+0x1>
     910:	80 91 c0 00 	lds	r24, 0x00C0	; 0x8000c0 <__TEXT_REGION_LENGTH__+0x7e00c0>
     914:	87 ff       	sbrs	r24, 7
     916:	fc cf       	rjmp	.-8      	; 0x910 <__stack+0x11>
     918:	40 91 c6 00 	lds	r20, 0x00C6	; 0x8000c6 <__TEXT_REGION_LENGTH__+0x7e00c6>
     91c:	40 93 4f 01 	sts	0x014F, r20	; 0x80014f <_ZL11MIDI_buffer+0x2>
     920:	20 91 4d 01 	lds	r18, 0x014D	; 0x80014d <_ZL11MIDI_buffer>
     924:	82 2f       	mov	r24, r18
     926:	90 e0       	ldi	r25, 0x00	; 0
     928:	88 0f       	add	r24, r24
     92a:	89 2f       	mov	r24, r25
     92c:	88 1f       	adc	r24, r24
     92e:	99 0b       	sbc	r25, r25
     930:	60 91 4e 01 	lds	r22, 0x014E	; 0x80014e <_ZL11MIDI_buffer+0x1>
     934:	01 97       	sbiw	r24, 0x01	; 1
     936:	39 f5       	brne	.+78     	; 0x986 <__stack+0x87>
     938:	86 2f       	mov	r24, r22
     93a:	90 e0       	ldi	r25, 0x00	; 0
     93c:	88 0f       	add	r24, r24
     93e:	89 2f       	mov	r24, r25
     940:	88 1f       	adc	r24, r24
     942:	99 0b       	sbc	r25, r25
     944:	89 2b       	or	r24, r25
     946:	f9 f4       	brne	.+62     	; 0x986 <__stack+0x87>
     948:	84 2f       	mov	r24, r20
     94a:	90 e0       	ldi	r25, 0x00	; 0
     94c:	88 0f       	add	r24, r24
     94e:	89 2f       	mov	r24, r25
     950:	88 1f       	adc	r24, r24
     952:	99 0b       	sbc	r25, r25
     954:	89 2b       	or	r24, r25
     956:	b9 f4       	brne	.+46     	; 0x986 <__stack+0x87>
     958:	89 b1       	in	r24, 0x09	; 9
     95a:	88 1f       	adc	r24, r24
     95c:	88 27       	eor	r24, r24
     95e:	88 1f       	adc	r24, r24
     960:	88 0f       	add	r24, r24
     962:	88 0f       	add	r24, r24
     964:	39 b1       	in	r19, 0x09	; 9
     966:	93 2f       	mov	r25, r19
     968:	90 74       	andi	r25, 0x40	; 64
     96a:	36 fd       	sbrc	r19, 6
     96c:	92 e0       	ldi	r25, 0x02	; 2
     96e:	59 b1       	in	r21, 0x09	; 9
     970:	2f 70       	andi	r18, 0x0F	; 15
     972:	30 e0       	ldi	r19, 0x00	; 0
     974:	55 fb       	bst	r21, 5
     976:	55 27       	eor	r21, r21
     978:	50 f9       	bld	r21, 0
     97a:	85 0f       	add	r24, r21
     97c:	89 0f       	add	r24, r25
     97e:	90 e0       	ldi	r25, 0x00	; 0
     980:	28 17       	cp	r18, r24
     982:	39 07       	cpc	r19, r25
     984:	29 f0       	breq	.+10     	; 0x990 <__stack+0x91>
     986:	60 93 4d 01 	sts	0x014D, r22	; 0x80014d <_ZL11MIDI_buffer>
     98a:	40 93 4e 01 	sts	0x014E, r20	; 0x80014e <_ZL11MIDI_buffer+0x1>
     98e:	c0 cf       	rjmp	.-128    	; 0x910 <__stack+0x11>
     990:	c3 b1       	in	r28, 0x03	; 3
     992:	c1 70       	andi	r28, 0x01	; 1
     994:	80 91 48 01 	lds	r24, 0x0148	; 0x800148 <__data_end+0xa>
     998:	c8 17       	cp	r28, r24
     99a:	41 f0       	breq	.+16     	; 0x9ac <__stack+0xad>
     99c:	8e e3       	ldi	r24, 0x3E	; 62
     99e:	91 e0       	ldi	r25, 0x01	; 1
     9a0:	0e 94 3a 04 	call	0x874	; 0x874 <_ZN11MIDI_status5resetEv>
     9a4:	c0 93 48 01 	sts	0x0148, r28	; 0x800148 <__data_end+0xa>
     9a8:	41 98       	cbi	0x08, 1	; 8
     9aa:	5a 98       	cbi	0x0b, 2	; 11
     9ac:	20 91 4d 01 	lds	r18, 0x014D	; 0x80014d <_ZL11MIDI_buffer>
     9b0:	22 95       	swap	r18
     9b2:	2f 70       	andi	r18, 0x0F	; 15
     9b4:	29 30       	cpi	r18, 0x09	; 9
     9b6:	48 f0       	brcs	.+18     	; 0x9ca <__stack+0xcb>
     9b8:	29 30       	cpi	r18, 0x09	; 9
     9ba:	49 f0       	breq	.+18     	; 0x9ce <__stack+0xcf>
     9bc:	2c 30       	cpi	r18, 0x0C	; 12
     9be:	48 f0       	brcs	.+18     	; 0x9d2 <__stack+0xd3>
     9c0:	2f 30       	cpi	r18, 0x0F	; 15
     9c2:	09 f4       	brne	.+2      	; 0x9c6 <__stack+0xc7>
     9c4:	a1 cf       	rjmp	.-190    	; 0x908 <__stack+0x9>
     9c6:	83 e0       	ldi	r24, 0x03	; 3
     9c8:	05 c0       	rjmp	.+10     	; 0x9d4 <__stack+0xd5>
     9ca:	80 e0       	ldi	r24, 0x00	; 0
     9cc:	03 c0       	rjmp	.+6      	; 0x9d4 <__stack+0xd5>
     9ce:	81 e0       	ldi	r24, 0x01	; 1
     9d0:	01 c0       	rjmp	.+2      	; 0x9d4 <__stack+0xd5>
     9d2:	82 e0       	ldi	r24, 0x02	; 2
     9d4:	90 e0       	ldi	r25, 0x00	; 0
     9d6:	fc 01       	movw	r30, r24
     9d8:	ea 5d       	subi	r30, 0xDA	; 218
     9da:	fe 4f       	sbci	r31, 0xFE	; 254
     9dc:	30 81       	ld	r19, Z
     9de:	23 13       	cpse	r18, r19
     9e0:	93 cf       	rjmp	.-218    	; 0x908 <__stack+0x9>
     9e2:	88 0f       	add	r24, r24
     9e4:	99 1f       	adc	r25, r25
     9e6:	fc 01       	movw	r30, r24
     9e8:	e6 5d       	subi	r30, 0xD6	; 214
     9ea:	fe 4f       	sbci	r31, 0xFE	; 254
     9ec:	80 81       	ld	r24, Z
     9ee:	91 81       	ldd	r25, Z+1	; 0x01
     9f0:	dc 01       	movw	r26, r24
     9f2:	ed 91       	ld	r30, X+
     9f4:	fc 91       	ld	r31, X
     9f6:	01 90       	ld	r0, Z+
     9f8:	f0 81       	ld	r31, Z
     9fa:	e0 2d       	mov	r30, r0
     9fc:	6e e4       	ldi	r22, 0x4E	; 78
     9fe:	71 e0       	ldi	r23, 0x01	; 1
     a00:	09 95       	icall
     a02:	82 cf       	rjmp	.-252    	; 0x908 <__stack+0x9>

00000a04 <_ZN8MIDI_CVMI15Antz_interfacesI13AVR_Antz_viewEE7releaseEPKh>:
     a04:	cf 93       	push	r28
     a06:	df 93       	push	r29
     a08:	eb 01       	movw	r28, r22
     a0a:	48 81       	ld	r20, Y
     a0c:	20 91 48 01 	lds	r18, 0x0148	; 0x800148 <__data_end+0xa>
     a10:	80 91 42 01 	lds	r24, 0x0142	; 0x800142 <__data_end+0x4>
     a14:	90 91 43 01 	lds	r25, 0x0143	; 0x800143 <__data_end+0x5>
     a18:	21 11       	cpse	r18, r1
     a1a:	2b c0       	rjmp	.+86     	; 0xa72 <_ZN8MIDI_CVMI15Antz_interfacesI13AVR_Antz_viewEE7releaseEPKh+0x6e>
     a1c:	20 91 40 01 	lds	r18, 0x0140	; 0x800140 <__data_end+0x2>
     a20:	30 91 41 01 	lds	r19, 0x0141	; 0x800141 <__data_end+0x3>
     a24:	82 0f       	add	r24, r18
     a26:	93 1f       	adc	r25, r19
     a28:	b9 01       	movw	r22, r18
     a2a:	82 17       	cp	r24, r18
     a2c:	93 07       	cpc	r25, r19
     a2e:	61 f0       	breq	.+24     	; 0xa48 <_ZN8MIDI_CVMI15Antz_interfacesI13AVR_Antz_viewEE7releaseEPKh+0x44>
     a30:	2f 5f       	subi	r18, 0xFF	; 255
     a32:	3f 4f       	sbci	r19, 0xFF	; 255
     a34:	fb 01       	movw	r30, r22
     a36:	50 81       	ld	r21, Z
     a38:	45 13       	cpse	r20, r21
     a3a:	f6 cf       	rjmp	.-20     	; 0xa28 <_ZN8MIDI_CVMI15Antz_interfacesI13AVR_Antz_viewEE7releaseEPKh+0x24>
     a3c:	41 e0       	ldi	r20, 0x01	; 1
     a3e:	50 e0       	ldi	r21, 0x00	; 0
     a40:	8e e3       	ldi	r24, 0x3E	; 62
     a42:	91 e0       	ldi	r25, 0x01	; 1
     a44:	0e 94 3d 02 	call	0x47a	; 0x47a <_ZN4ustl8memblock5eraseEPKcj>
     a48:	80 91 42 01 	lds	r24, 0x0142	; 0x800142 <__data_end+0x4>
     a4c:	90 91 43 01 	lds	r25, 0x0143	; 0x800143 <__data_end+0x5>
     a50:	00 97       	sbiw	r24, 0x00	; 0
     a52:	09 f4       	brne	.+2      	; 0xa56 <_ZN8MIDI_CVMI15Antz_interfacesI13AVR_Antz_viewEE7releaseEPKh+0x52>
     a54:	6d c0       	rjmp	.+218    	; 0xb30 <_ZN8MIDI_CVMI15Antz_interfacesI13AVR_Antz_viewEE7releaseEPKh+0x12c>
     a56:	e0 91 40 01 	lds	r30, 0x0140	; 0x800140 <__data_end+0x2>
     a5a:	f0 91 41 01 	lds	r31, 0x0141	; 0x800141 <__data_end+0x3>
     a5e:	8e 0f       	add	r24, r30
     a60:	9f 1f       	adc	r25, r31
     a62:	fc 01       	movw	r30, r24
     a64:	31 97       	sbiw	r30, 0x01	; 1
     a66:	69 81       	ldd	r22, Y+1	; 0x01
     a68:	80 81       	ld	r24, Z
     a6a:	df 91       	pop	r29
     a6c:	cf 91       	pop	r28
     a6e:	0c 94 f2 03 	jmp	0x7e4	; 0x7e4 <_ZN8MIDI_CVMI15Antz_interfacesI13AVR_Antz_viewEE13cv1_play_noteEhh.isra.15>
     a72:	20 91 46 01 	lds	r18, 0x0146	; 0x800146 <__data_end+0x8>
     a76:	21 11       	cpse	r18, r1
     a78:	17 c0       	rjmp	.+46     	; 0xaa8 <_ZN8MIDI_CVMI15Antz_interfacesI13AVR_Antz_viewEE7releaseEPKh+0xa4>
     a7a:	20 91 47 01 	lds	r18, 0x0147	; 0x800147 <__data_end+0x9>
     a7e:	42 13       	cpse	r20, r18
     a80:	13 c0       	rjmp	.+38     	; 0xaa8 <_ZN8MIDI_CVMI15Antz_interfacesI13AVR_Antz_viewEE7releaseEPKh+0xa4>
     a82:	00 97       	sbiw	r24, 0x00	; 0
     a84:	69 f0       	breq	.+26     	; 0xaa0 <_ZN8MIDI_CVMI15Antz_interfacesI13AVR_Antz_viewEE7releaseEPKh+0x9c>
     a86:	e0 91 40 01 	lds	r30, 0x0140	; 0x800140 <__data_end+0x2>
     a8a:	f0 91 41 01 	lds	r31, 0x0141	; 0x800141 <__data_end+0x3>
     a8e:	8e 0f       	add	r24, r30
     a90:	9f 1f       	adc	r25, r31
     a92:	fc 01       	movw	r30, r24
     a94:	31 97       	sbiw	r30, 0x01	; 1
     a96:	60 e0       	ldi	r22, 0x00	; 0
     a98:	80 81       	ld	r24, Z
     a9a:	0e 94 f2 03 	call	0x7e4	; 0x7e4 <_ZN8MIDI_CVMI15Antz_interfacesI13AVR_Antz_viewEE13cv1_play_noteEhh.isra.15>
     a9e:	1c c0       	rjmp	.+56     	; 0xad8 <_ZN8MIDI_CVMI15Antz_interfacesI13AVR_Antz_viewEE7releaseEPKh+0xd4>
     aa0:	81 e0       	ldi	r24, 0x01	; 1
     aa2:	80 93 46 01 	sts	0x0146, r24	; 0x800146 <__data_end+0x8>
     aa6:	3c c0       	rjmp	.+120    	; 0xb20 <_ZN8MIDI_CVMI15Antz_interfacesI13AVR_Antz_viewEE7releaseEPKh+0x11c>
     aa8:	20 91 49 01 	lds	r18, 0x0149	; 0x800149 <__data_end+0xb>
     aac:	21 11       	cpse	r18, r1
     aae:	22 c0       	rjmp	.+68     	; 0xaf4 <_ZN8MIDI_CVMI15Antz_interfacesI13AVR_Antz_viewEE7releaseEPKh+0xf0>
     ab0:	20 91 4a 01 	lds	r18, 0x014A	; 0x80014a <__data_end+0xc>
     ab4:	42 13       	cpse	r20, r18
     ab6:	1e c0       	rjmp	.+60     	; 0xaf4 <_ZN8MIDI_CVMI15Antz_interfacesI13AVR_Antz_viewEE7releaseEPKh+0xf0>
     ab8:	00 97       	sbiw	r24, 0x00	; 0
     aba:	c1 f0       	breq	.+48     	; 0xaec <_ZN8MIDI_CVMI15Antz_interfacesI13AVR_Antz_viewEE7releaseEPKh+0xe8>
     abc:	e0 91 40 01 	lds	r30, 0x0140	; 0x800140 <__data_end+0x2>
     ac0:	f0 91 41 01 	lds	r31, 0x0141	; 0x800141 <__data_end+0x3>
     ac4:	8e 0f       	add	r24, r30
     ac6:	9f 1f       	adc	r25, r31
     ac8:	fc 01       	movw	r30, r24
     aca:	31 97       	sbiw	r30, 0x01	; 1
     acc:	60 81       	ld	r22, Z
     ace:	70 e0       	ldi	r23, 0x00	; 0
     ad0:	80 e0       	ldi	r24, 0x00	; 0
     ad2:	90 e0       	ldi	r25, 0x00	; 0
     ad4:	0e 94 e2 03 	call	0x7c4	; 0x7c4 <_ZN8MIDI_CVMI15Antz_interfacesI13AVR_Antz_viewEE13cv2_play_noteEm.isra.13>
     ad8:	80 91 42 01 	lds	r24, 0x0142	; 0x800142 <__data_end+0x4>
     adc:	90 91 43 01 	lds	r25, 0x0143	; 0x800143 <__data_end+0x5>
     ae0:	01 97       	sbiw	r24, 0x01	; 1
     ae2:	90 93 43 01 	sts	0x0143, r25	; 0x800143 <__data_end+0x5>
     ae6:	80 93 42 01 	sts	0x0142, r24	; 0x800142 <__data_end+0x4>
     aea:	1a c0       	rjmp	.+52     	; 0xb20 <_ZN8MIDI_CVMI15Antz_interfacesI13AVR_Antz_viewEE7releaseEPKh+0x11c>
     aec:	81 e0       	ldi	r24, 0x01	; 1
     aee:	80 93 49 01 	sts	0x0149, r24	; 0x800149 <__data_end+0xb>
     af2:	16 c0       	rjmp	.+44     	; 0xb20 <_ZN8MIDI_CVMI15Antz_interfacesI13AVR_Antz_viewEE7releaseEPKh+0x11c>
     af4:	20 91 40 01 	lds	r18, 0x0140	; 0x800140 <__data_end+0x2>
     af8:	30 91 41 01 	lds	r19, 0x0141	; 0x800141 <__data_end+0x3>
     afc:	82 0f       	add	r24, r18
     afe:	93 1f       	adc	r25, r19
     b00:	b9 01       	movw	r22, r18
     b02:	82 17       	cp	r24, r18
     b04:	93 07       	cpc	r25, r19
     b06:	61 f0       	breq	.+24     	; 0xb20 <_ZN8MIDI_CVMI15Antz_interfacesI13AVR_Antz_viewEE7releaseEPKh+0x11c>
     b08:	2f 5f       	subi	r18, 0xFF	; 255
     b0a:	3f 4f       	sbci	r19, 0xFF	; 255
     b0c:	fb 01       	movw	r30, r22
     b0e:	50 81       	ld	r21, Z
     b10:	45 13       	cpse	r20, r21
     b12:	f6 cf       	rjmp	.-20     	; 0xb00 <_ZN8MIDI_CVMI15Antz_interfacesI13AVR_Antz_viewEE7releaseEPKh+0xfc>
     b14:	41 e0       	ldi	r20, 0x01	; 1
     b16:	50 e0       	ldi	r21, 0x00	; 0
     b18:	8e e3       	ldi	r24, 0x3E	; 62
     b1a:	91 e0       	ldi	r25, 0x01	; 1
     b1c:	0e 94 3d 02 	call	0x47a	; 0x47a <_ZN4ustl8memblock5eraseEPKcj>
     b20:	80 91 46 01 	lds	r24, 0x0146	; 0x800146 <__data_end+0x8>
     b24:	88 23       	and	r24, r24
     b26:	31 f0       	breq	.+12     	; 0xb34 <_ZN8MIDI_CVMI15Antz_interfacesI13AVR_Antz_viewEE7releaseEPKh+0x130>
     b28:	80 91 49 01 	lds	r24, 0x0149	; 0x800149 <__data_end+0xb>
     b2c:	88 23       	and	r24, r24
     b2e:	11 f0       	breq	.+4      	; 0xb34 <_ZN8MIDI_CVMI15Antz_interfacesI13AVR_Antz_viewEE7releaseEPKh+0x130>
     b30:	41 98       	cbi	0x08, 1	; 8
     b32:	5a 98       	cbi	0x0b, 2	; 11
     b34:	df 91       	pop	r29
     b36:	cf 91       	pop	r28
     b38:	08 95       	ret

00000b3a <_ZN16MIDI_CVM_releaseI15Antz_interfacesI13AVR_Antz_viewEE7processEPKh>:
     b3a:	0c 94 02 05 	jmp	0xa04	; 0xa04 <_ZN8MIDI_CVMI15Antz_interfacesI13AVR_Antz_viewEE7releaseEPKh>

00000b3e <_ZN4ustl6vectorIhE12emplace_backIIhEEEvDpOT_>:
     b3e:	1f 93       	push	r17
     b40:	cf 93       	push	r28
     b42:	df 93       	push	r29
     b44:	ec 01       	movw	r28, r24
     b46:	fb 01       	movw	r30, r22
     b48:	10 81       	ld	r17, Z
     b4a:	6c 81       	ldd	r22, Y+4	; 0x04
     b4c:	7d 81       	ldd	r23, Y+5	; 0x05
     b4e:	6f 5f       	subi	r22, 0xFF	; 255
     b50:	7f 4f       	sbci	r23, 0xFF	; 255
     b52:	40 e0       	ldi	r20, 0x00	; 0
     b54:	0e 94 ab 00 	call	0x156	; 0x156 <_ZN4ustl8memblock7reserveEjb>
     b58:	ec 81       	ldd	r30, Y+4	; 0x04
     b5a:	fd 81       	ldd	r31, Y+5	; 0x05
     b5c:	31 96       	adiw	r30, 0x01	; 1
     b5e:	fd 83       	std	Y+5, r31	; 0x05
     b60:	ec 83       	std	Y+4, r30	; 0x04
     b62:	8a 81       	ldd	r24, Y+2	; 0x02
     b64:	9b 81       	ldd	r25, Y+3	; 0x03
     b66:	e8 0f       	add	r30, r24
     b68:	f9 1f       	adc	r31, r25
     b6a:	31 97       	sbiw	r30, 0x01	; 1
     b6c:	09 f0       	breq	.+2      	; 0xb70 <_ZN4ustl6vectorIhE12emplace_backIIhEEEvDpOT_+0x32>
     b6e:	10 83       	st	Z, r17
     b70:	df 91       	pop	r29
     b72:	cf 91       	pop	r28
     b74:	1f 91       	pop	r17
     b76:	08 95       	ret

00000b78 <_ZN16MIDI_CVM_depressI15Antz_interfacesI13AVR_Antz_viewEE7processEPKh>:
     b78:	1f 93       	push	r17
     b7a:	cf 93       	push	r28
     b7c:	df 93       	push	r29
     b7e:	1f 92       	push	r1
     b80:	cd b7       	in	r28, 0x3d	; 61
     b82:	de b7       	in	r29, 0x3e	; 62
     b84:	fb 01       	movw	r30, r22
     b86:	21 81       	ldd	r18, Z+1	; 0x01
     b88:	21 11       	cpse	r18, r1
     b8a:	03 c0       	rjmp	.+6      	; 0xb92 <_ZN16MIDI_CVM_depressI15Antz_interfacesI13AVR_Antz_viewEE7processEPKh+0x1a>
     b8c:	0e 94 02 05 	call	0xa04	; 0xa04 <_ZN8MIDI_CVMI15Antz_interfacesI13AVR_Antz_viewEE7releaseEPKh>
     b90:	27 c0       	rjmp	.+78     	; 0xbe0 <_ZN16MIDI_CVM_depressI15Antz_interfacesI13AVR_Antz_viewEE7processEPKh+0x68>
     b92:	fb 01       	movw	r30, r22
     b94:	10 81       	ld	r17, Z
     b96:	80 91 48 01 	lds	r24, 0x0148	; 0x800148 <__data_end+0xa>
     b9a:	81 11       	cpse	r24, r1
     b9c:	05 c0       	rjmp	.+10     	; 0xba8 <_ZN16MIDI_CVM_depressI15Antz_interfacesI13AVR_Antz_viewEE7processEPKh+0x30>
     b9e:	62 2f       	mov	r22, r18
     ba0:	81 2f       	mov	r24, r17
     ba2:	0e 94 f2 03 	call	0x7e4	; 0x7e4 <_ZN8MIDI_CVMI15Antz_interfacesI13AVR_Antz_viewEE13cv1_play_noteEhh.isra.15>
     ba6:	14 c0       	rjmp	.+40     	; 0xbd0 <_ZN16MIDI_CVM_depressI15Antz_interfacesI13AVR_Antz_viewEE7processEPKh+0x58>
     ba8:	80 91 46 01 	lds	r24, 0x0146	; 0x800146 <__data_end+0x8>
     bac:	88 23       	and	r24, r24
     bae:	29 f0       	breq	.+10     	; 0xbba <_ZN16MIDI_CVM_depressI15Antz_interfacesI13AVR_Antz_viewEE7processEPKh+0x42>
     bb0:	60 e0       	ldi	r22, 0x00	; 0
     bb2:	81 2f       	mov	r24, r17
     bb4:	0e 94 f2 03 	call	0x7e4	; 0x7e4 <_ZN8MIDI_CVMI15Antz_interfacesI13AVR_Antz_viewEE13cv1_play_noteEhh.isra.15>
     bb8:	13 c0       	rjmp	.+38     	; 0xbe0 <_ZN16MIDI_CVM_depressI15Antz_interfacesI13AVR_Antz_viewEE7processEPKh+0x68>
     bba:	80 91 49 01 	lds	r24, 0x0149	; 0x800149 <__data_end+0xb>
     bbe:	88 23       	and	r24, r24
     bc0:	39 f0       	breq	.+14     	; 0xbd0 <_ZN16MIDI_CVM_depressI15Antz_interfacesI13AVR_Antz_viewEE7processEPKh+0x58>
     bc2:	61 2f       	mov	r22, r17
     bc4:	70 e0       	ldi	r23, 0x00	; 0
     bc6:	80 e0       	ldi	r24, 0x00	; 0
     bc8:	90 e0       	ldi	r25, 0x00	; 0
     bca:	0e 94 e2 03 	call	0x7c4	; 0x7c4 <_ZN8MIDI_CVMI15Antz_interfacesI13AVR_Antz_viewEE13cv2_play_noteEm.isra.13>
     bce:	08 c0       	rjmp	.+16     	; 0xbe0 <_ZN16MIDI_CVM_depressI15Antz_interfacesI13AVR_Antz_viewEE7processEPKh+0x68>
     bd0:	19 83       	std	Y+1, r17	; 0x01
     bd2:	be 01       	movw	r22, r28
     bd4:	6f 5f       	subi	r22, 0xFF	; 255
     bd6:	7f 4f       	sbci	r23, 0xFF	; 255
     bd8:	8e e3       	ldi	r24, 0x3E	; 62
     bda:	91 e0       	ldi	r25, 0x01	; 1
     bdc:	0e 94 9f 05 	call	0xb3e	; 0xb3e <_ZN4ustl6vectorIhE12emplace_backIIhEEEvDpOT_>
     be0:	0f 90       	pop	r0
     be2:	df 91       	pop	r29
     be4:	cf 91       	pop	r28
     be6:	1f 91       	pop	r17
     be8:	08 95       	ret

00000bea <_GLOBAL__sub_I__ZN8MIDI_msgI15Antz_interfacesI13AVR_Antz_viewEE7_statusE>:
     bea:	8e e3       	ldi	r24, 0x3E	; 62
     bec:	91 e0       	ldi	r25, 0x01	; 1
     bee:	0e 94 6b 00 	call	0xd6	; 0xd6 <_ZN4ustl8memblockC1Ev>
     bf2:	41 e0       	ldi	r20, 0x01	; 1
     bf4:	60 e8       	ldi	r22, 0x80	; 128
     bf6:	70 e0       	ldi	r23, 0x00	; 0
     bf8:	8e e3       	ldi	r24, 0x3E	; 62
     bfa:	91 e0       	ldi	r25, 0x01	; 1
     bfc:	0e 94 14 04 	call	0x828	; 0x828 <_ZN4ustl6vectorIhE6resizeEjb>
     c00:	8e e3       	ldi	r24, 0x3E	; 62
     c02:	91 e0       	ldi	r25, 0x01	; 1
     c04:	0c 94 3a 04 	jmp	0x874	; 0x874 <_ZN11MIDI_status5resetEv>

00000c08 <_GLOBAL__sub_D__ZN8MIDI_msgI15Antz_interfacesI13AVR_Antz_viewEE7_statusE>:
     c08:	8e e3       	ldi	r24, 0x3E	; 62
     c0a:	91 e0       	ldi	r25, 0x01	; 1
     c0c:	0c 94 8b 00 	jmp	0x116	; 0x116 <_ZN4ustl8memblockD1Ev>

00000c10 <_ZdlPv>:
     c10:	0c 94 15 07 	jmp	0xe2a	; 0xe2a <free>

00000c14 <__divmodsi4>:
     c14:	05 2e       	mov	r0, r21
     c16:	97 fb       	bst	r25, 7
     c18:	1e f4       	brtc	.+6      	; 0xc20 <__divmodsi4+0xc>
     c1a:	00 94       	com	r0
     c1c:	0e 94 21 06 	call	0xc42	; 0xc42 <__negsi2>
     c20:	57 fd       	sbrc	r21, 7
     c22:	07 d0       	rcall	.+14     	; 0xc32 <__divmodsi4_neg2>
     c24:	0e 94 46 06 	call	0xc8c	; 0xc8c <__udivmodsi4>
     c28:	07 fc       	sbrc	r0, 7
     c2a:	03 d0       	rcall	.+6      	; 0xc32 <__divmodsi4_neg2>
     c2c:	4e f4       	brtc	.+18     	; 0xc40 <__divmodsi4_exit>
     c2e:	0c 94 21 06 	jmp	0xc42	; 0xc42 <__negsi2>

00000c32 <__divmodsi4_neg2>:
     c32:	50 95       	com	r21
     c34:	40 95       	com	r20
     c36:	30 95       	com	r19
     c38:	21 95       	neg	r18
     c3a:	3f 4f       	sbci	r19, 0xFF	; 255
     c3c:	4f 4f       	sbci	r20, 0xFF	; 255
     c3e:	5f 4f       	sbci	r21, 0xFF	; 255

00000c40 <__divmodsi4_exit>:
     c40:	08 95       	ret

00000c42 <__negsi2>:
     c42:	90 95       	com	r25
     c44:	80 95       	com	r24
     c46:	70 95       	com	r23
     c48:	61 95       	neg	r22
     c4a:	7f 4f       	sbci	r23, 0xFF	; 255
     c4c:	8f 4f       	sbci	r24, 0xFF	; 255
     c4e:	9f 4f       	sbci	r25, 0xFF	; 255
     c50:	08 95       	ret

00000c52 <__clzhi2>:
     c52:	aa 27       	eor	r26, r26
     c54:	99 23       	and	r25, r25
     c56:	29 f4       	brne	.+10     	; 0xc62 <__clzhi2+0x10>
     c58:	a8 5f       	subi	r26, 0xF8	; 248
     c5a:	98 2b       	or	r25, r24
     c5c:	11 f4       	brne	.+4      	; 0xc62 <__clzhi2+0x10>
     c5e:	80 e1       	ldi	r24, 0x10	; 16
     c60:	08 95       	ret
     c62:	90 31       	cpi	r25, 0x10	; 16
     c64:	18 f4       	brcc	.+6      	; 0xc6c <__clzhi2+0x1a>
     c66:	ad 5f       	subi	r26, 0xFD	; 253
     c68:	92 95       	swap	r25
     c6a:	a3 95       	inc	r26
     c6c:	99 0f       	add	r25, r25
     c6e:	e8 f7       	brcc	.-6      	; 0xc6a <__clzhi2+0x18>
     c70:	8a 2f       	mov	r24, r26
     c72:	99 27       	eor	r25, r25
     c74:	08 95       	ret

00000c76 <__muluhisi3>:
     c76:	0e 94 6e 06 	call	0xcdc	; 0xcdc <__umulhisi3>
     c7a:	a5 9f       	mul	r26, r21
     c7c:	90 0d       	add	r25, r0
     c7e:	b4 9f       	mul	r27, r20
     c80:	90 0d       	add	r25, r0
     c82:	a4 9f       	mul	r26, r20
     c84:	80 0d       	add	r24, r0
     c86:	91 1d       	adc	r25, r1
     c88:	11 24       	eor	r1, r1
     c8a:	08 95       	ret

00000c8c <__udivmodsi4>:
     c8c:	a1 e2       	ldi	r26, 0x21	; 33
     c8e:	1a 2e       	mov	r1, r26
     c90:	aa 1b       	sub	r26, r26
     c92:	bb 1b       	sub	r27, r27
     c94:	fd 01       	movw	r30, r26
     c96:	0d c0       	rjmp	.+26     	; 0xcb2 <__udivmodsi4_ep>

00000c98 <__udivmodsi4_loop>:
     c98:	aa 1f       	adc	r26, r26
     c9a:	bb 1f       	adc	r27, r27
     c9c:	ee 1f       	adc	r30, r30
     c9e:	ff 1f       	adc	r31, r31
     ca0:	a2 17       	cp	r26, r18
     ca2:	b3 07       	cpc	r27, r19
     ca4:	e4 07       	cpc	r30, r20
     ca6:	f5 07       	cpc	r31, r21
     ca8:	20 f0       	brcs	.+8      	; 0xcb2 <__udivmodsi4_ep>
     caa:	a2 1b       	sub	r26, r18
     cac:	b3 0b       	sbc	r27, r19
     cae:	e4 0b       	sbc	r30, r20
     cb0:	f5 0b       	sbc	r31, r21

00000cb2 <__udivmodsi4_ep>:
     cb2:	66 1f       	adc	r22, r22
     cb4:	77 1f       	adc	r23, r23
     cb6:	88 1f       	adc	r24, r24
     cb8:	99 1f       	adc	r25, r25
     cba:	1a 94       	dec	r1
     cbc:	69 f7       	brne	.-38     	; 0xc98 <__udivmodsi4_loop>
     cbe:	60 95       	com	r22
     cc0:	70 95       	com	r23
     cc2:	80 95       	com	r24
     cc4:	90 95       	com	r25
     cc6:	9b 01       	movw	r18, r22
     cc8:	ac 01       	movw	r20, r24
     cca:	bd 01       	movw	r22, r26
     ccc:	cf 01       	movw	r24, r30
     cce:	08 95       	ret

00000cd0 <__tablejump2__>:
     cd0:	ee 0f       	add	r30, r30
     cd2:	ff 1f       	adc	r31, r31
     cd4:	05 90       	lpm	r0, Z+
     cd6:	f4 91       	lpm	r31, Z
     cd8:	e0 2d       	mov	r30, r0
     cda:	09 94       	ijmp

00000cdc <__umulhisi3>:
     cdc:	a2 9f       	mul	r26, r18
     cde:	b0 01       	movw	r22, r0
     ce0:	b3 9f       	mul	r27, r19
     ce2:	c0 01       	movw	r24, r0
     ce4:	a3 9f       	mul	r26, r19
     ce6:	70 0d       	add	r23, r0
     ce8:	81 1d       	adc	r24, r1
     cea:	11 24       	eor	r1, r1
     cec:	91 1d       	adc	r25, r1
     cee:	b2 9f       	mul	r27, r18
     cf0:	70 0d       	add	r23, r0
     cf2:	81 1d       	adc	r24, r1
     cf4:	11 24       	eor	r1, r1
     cf6:	91 1d       	adc	r25, r1
     cf8:	08 95       	ret

00000cfa <malloc>:
     cfa:	0f 93       	push	r16
     cfc:	1f 93       	push	r17
     cfe:	cf 93       	push	r28
     d00:	df 93       	push	r29
     d02:	82 30       	cpi	r24, 0x02	; 2
     d04:	91 05       	cpc	r25, r1
     d06:	10 f4       	brcc	.+4      	; 0xd0c <malloc+0x12>
     d08:	82 e0       	ldi	r24, 0x02	; 2
     d0a:	90 e0       	ldi	r25, 0x00	; 0
     d0c:	e0 91 52 01 	lds	r30, 0x0152	; 0x800152 <__flp>
     d10:	f0 91 53 01 	lds	r31, 0x0153	; 0x800153 <__flp+0x1>
     d14:	20 e0       	ldi	r18, 0x00	; 0
     d16:	30 e0       	ldi	r19, 0x00	; 0
     d18:	a0 e0       	ldi	r26, 0x00	; 0
     d1a:	b0 e0       	ldi	r27, 0x00	; 0
     d1c:	30 97       	sbiw	r30, 0x00	; 0
     d1e:	19 f1       	breq	.+70     	; 0xd66 <malloc+0x6c>
     d20:	40 81       	ld	r20, Z
     d22:	51 81       	ldd	r21, Z+1	; 0x01
     d24:	02 81       	ldd	r16, Z+2	; 0x02
     d26:	13 81       	ldd	r17, Z+3	; 0x03
     d28:	48 17       	cp	r20, r24
     d2a:	59 07       	cpc	r21, r25
     d2c:	c8 f0       	brcs	.+50     	; 0xd60 <malloc+0x66>
     d2e:	84 17       	cp	r24, r20
     d30:	95 07       	cpc	r25, r21
     d32:	69 f4       	brne	.+26     	; 0xd4e <malloc+0x54>
     d34:	10 97       	sbiw	r26, 0x00	; 0
     d36:	31 f0       	breq	.+12     	; 0xd44 <malloc+0x4a>
     d38:	12 96       	adiw	r26, 0x02	; 2
     d3a:	0c 93       	st	X, r16
     d3c:	12 97       	sbiw	r26, 0x02	; 2
     d3e:	13 96       	adiw	r26, 0x03	; 3
     d40:	1c 93       	st	X, r17
     d42:	27 c0       	rjmp	.+78     	; 0xd92 <malloc+0x98>
     d44:	00 93 52 01 	sts	0x0152, r16	; 0x800152 <__flp>
     d48:	10 93 53 01 	sts	0x0153, r17	; 0x800153 <__flp+0x1>
     d4c:	22 c0       	rjmp	.+68     	; 0xd92 <malloc+0x98>
     d4e:	21 15       	cp	r18, r1
     d50:	31 05       	cpc	r19, r1
     d52:	19 f0       	breq	.+6      	; 0xd5a <malloc+0x60>
     d54:	42 17       	cp	r20, r18
     d56:	53 07       	cpc	r21, r19
     d58:	18 f4       	brcc	.+6      	; 0xd60 <malloc+0x66>
     d5a:	9a 01       	movw	r18, r20
     d5c:	bd 01       	movw	r22, r26
     d5e:	ef 01       	movw	r28, r30
     d60:	df 01       	movw	r26, r30
     d62:	f8 01       	movw	r30, r16
     d64:	db cf       	rjmp	.-74     	; 0xd1c <malloc+0x22>
     d66:	21 15       	cp	r18, r1
     d68:	31 05       	cpc	r19, r1
     d6a:	f9 f0       	breq	.+62     	; 0xdaa <malloc+0xb0>
     d6c:	28 1b       	sub	r18, r24
     d6e:	39 0b       	sbc	r19, r25
     d70:	24 30       	cpi	r18, 0x04	; 4
     d72:	31 05       	cpc	r19, r1
     d74:	80 f4       	brcc	.+32     	; 0xd96 <malloc+0x9c>
     d76:	8a 81       	ldd	r24, Y+2	; 0x02
     d78:	9b 81       	ldd	r25, Y+3	; 0x03
     d7a:	61 15       	cp	r22, r1
     d7c:	71 05       	cpc	r23, r1
     d7e:	21 f0       	breq	.+8      	; 0xd88 <malloc+0x8e>
     d80:	fb 01       	movw	r30, r22
     d82:	93 83       	std	Z+3, r25	; 0x03
     d84:	82 83       	std	Z+2, r24	; 0x02
     d86:	04 c0       	rjmp	.+8      	; 0xd90 <malloc+0x96>
     d88:	90 93 53 01 	sts	0x0153, r25	; 0x800153 <__flp+0x1>
     d8c:	80 93 52 01 	sts	0x0152, r24	; 0x800152 <__flp>
     d90:	fe 01       	movw	r30, r28
     d92:	32 96       	adiw	r30, 0x02	; 2
     d94:	44 c0       	rjmp	.+136    	; 0xe1e <malloc+0x124>
     d96:	fe 01       	movw	r30, r28
     d98:	e2 0f       	add	r30, r18
     d9a:	f3 1f       	adc	r31, r19
     d9c:	81 93       	st	Z+, r24
     d9e:	91 93       	st	Z+, r25
     da0:	22 50       	subi	r18, 0x02	; 2
     da2:	31 09       	sbc	r19, r1
     da4:	39 83       	std	Y+1, r19	; 0x01
     da6:	28 83       	st	Y, r18
     da8:	3a c0       	rjmp	.+116    	; 0xe1e <malloc+0x124>
     daa:	20 91 50 01 	lds	r18, 0x0150	; 0x800150 <__brkval>
     dae:	30 91 51 01 	lds	r19, 0x0151	; 0x800151 <__brkval+0x1>
     db2:	23 2b       	or	r18, r19
     db4:	41 f4       	brne	.+16     	; 0xdc6 <malloc+0xcc>
     db6:	20 91 02 01 	lds	r18, 0x0102	; 0x800102 <__malloc_heap_start>
     dba:	30 91 03 01 	lds	r19, 0x0103	; 0x800103 <__malloc_heap_start+0x1>
     dbe:	30 93 51 01 	sts	0x0151, r19	; 0x800151 <__brkval+0x1>
     dc2:	20 93 50 01 	sts	0x0150, r18	; 0x800150 <__brkval>
     dc6:	20 91 00 01 	lds	r18, 0x0100	; 0x800100 <__data_start>
     dca:	30 91 01 01 	lds	r19, 0x0101	; 0x800101 <__data_start+0x1>
     dce:	21 15       	cp	r18, r1
     dd0:	31 05       	cpc	r19, r1
     dd2:	41 f4       	brne	.+16     	; 0xde4 <malloc+0xea>
     dd4:	2d b7       	in	r18, 0x3d	; 61
     dd6:	3e b7       	in	r19, 0x3e	; 62
     dd8:	40 91 04 01 	lds	r20, 0x0104	; 0x800104 <__malloc_margin>
     ddc:	50 91 05 01 	lds	r21, 0x0105	; 0x800105 <__malloc_margin+0x1>
     de0:	24 1b       	sub	r18, r20
     de2:	35 0b       	sbc	r19, r21
     de4:	e0 91 50 01 	lds	r30, 0x0150	; 0x800150 <__brkval>
     de8:	f0 91 51 01 	lds	r31, 0x0151	; 0x800151 <__brkval+0x1>
     dec:	e2 17       	cp	r30, r18
     dee:	f3 07       	cpc	r31, r19
     df0:	a0 f4       	brcc	.+40     	; 0xe1a <malloc+0x120>
     df2:	2e 1b       	sub	r18, r30
     df4:	3f 0b       	sbc	r19, r31
     df6:	28 17       	cp	r18, r24
     df8:	39 07       	cpc	r19, r25
     dfa:	78 f0       	brcs	.+30     	; 0xe1a <malloc+0x120>
     dfc:	ac 01       	movw	r20, r24
     dfe:	4e 5f       	subi	r20, 0xFE	; 254
     e00:	5f 4f       	sbci	r21, 0xFF	; 255
     e02:	24 17       	cp	r18, r20
     e04:	35 07       	cpc	r19, r21
     e06:	48 f0       	brcs	.+18     	; 0xe1a <malloc+0x120>
     e08:	4e 0f       	add	r20, r30
     e0a:	5f 1f       	adc	r21, r31
     e0c:	50 93 51 01 	sts	0x0151, r21	; 0x800151 <__brkval+0x1>
     e10:	40 93 50 01 	sts	0x0150, r20	; 0x800150 <__brkval>
     e14:	81 93       	st	Z+, r24
     e16:	91 93       	st	Z+, r25
     e18:	02 c0       	rjmp	.+4      	; 0xe1e <malloc+0x124>
     e1a:	e0 e0       	ldi	r30, 0x00	; 0
     e1c:	f0 e0       	ldi	r31, 0x00	; 0
     e1e:	cf 01       	movw	r24, r30
     e20:	df 91       	pop	r29
     e22:	cf 91       	pop	r28
     e24:	1f 91       	pop	r17
     e26:	0f 91       	pop	r16
     e28:	08 95       	ret

00000e2a <free>:
     e2a:	cf 93       	push	r28
     e2c:	df 93       	push	r29
     e2e:	00 97       	sbiw	r24, 0x00	; 0
     e30:	09 f4       	brne	.+2      	; 0xe34 <free+0xa>
     e32:	81 c0       	rjmp	.+258    	; 0xf36 <free+0x10c>
     e34:	fc 01       	movw	r30, r24
     e36:	32 97       	sbiw	r30, 0x02	; 2
     e38:	13 82       	std	Z+3, r1	; 0x03
     e3a:	12 82       	std	Z+2, r1	; 0x02
     e3c:	a0 91 52 01 	lds	r26, 0x0152	; 0x800152 <__flp>
     e40:	b0 91 53 01 	lds	r27, 0x0153	; 0x800153 <__flp+0x1>
     e44:	10 97       	sbiw	r26, 0x00	; 0
     e46:	81 f4       	brne	.+32     	; 0xe68 <free+0x3e>
     e48:	20 81       	ld	r18, Z
     e4a:	31 81       	ldd	r19, Z+1	; 0x01
     e4c:	82 0f       	add	r24, r18
     e4e:	93 1f       	adc	r25, r19
     e50:	20 91 50 01 	lds	r18, 0x0150	; 0x800150 <__brkval>
     e54:	30 91 51 01 	lds	r19, 0x0151	; 0x800151 <__brkval+0x1>
     e58:	28 17       	cp	r18, r24
     e5a:	39 07       	cpc	r19, r25
     e5c:	51 f5       	brne	.+84     	; 0xeb2 <free+0x88>
     e5e:	f0 93 51 01 	sts	0x0151, r31	; 0x800151 <__brkval+0x1>
     e62:	e0 93 50 01 	sts	0x0150, r30	; 0x800150 <__brkval>
     e66:	67 c0       	rjmp	.+206    	; 0xf36 <free+0x10c>
     e68:	ed 01       	movw	r28, r26
     e6a:	20 e0       	ldi	r18, 0x00	; 0
     e6c:	30 e0       	ldi	r19, 0x00	; 0
     e6e:	ce 17       	cp	r28, r30
     e70:	df 07       	cpc	r29, r31
     e72:	40 f4       	brcc	.+16     	; 0xe84 <free+0x5a>
     e74:	4a 81       	ldd	r20, Y+2	; 0x02
     e76:	5b 81       	ldd	r21, Y+3	; 0x03
     e78:	9e 01       	movw	r18, r28
     e7a:	41 15       	cp	r20, r1
     e7c:	51 05       	cpc	r21, r1
     e7e:	f1 f0       	breq	.+60     	; 0xebc <free+0x92>
     e80:	ea 01       	movw	r28, r20
     e82:	f5 cf       	rjmp	.-22     	; 0xe6e <free+0x44>
     e84:	d3 83       	std	Z+3, r29	; 0x03
     e86:	c2 83       	std	Z+2, r28	; 0x02
     e88:	40 81       	ld	r20, Z
     e8a:	51 81       	ldd	r21, Z+1	; 0x01
     e8c:	84 0f       	add	r24, r20
     e8e:	95 1f       	adc	r25, r21
     e90:	c8 17       	cp	r28, r24
     e92:	d9 07       	cpc	r29, r25
     e94:	59 f4       	brne	.+22     	; 0xeac <free+0x82>
     e96:	88 81       	ld	r24, Y
     e98:	99 81       	ldd	r25, Y+1	; 0x01
     e9a:	84 0f       	add	r24, r20
     e9c:	95 1f       	adc	r25, r21
     e9e:	02 96       	adiw	r24, 0x02	; 2
     ea0:	91 83       	std	Z+1, r25	; 0x01
     ea2:	80 83       	st	Z, r24
     ea4:	8a 81       	ldd	r24, Y+2	; 0x02
     ea6:	9b 81       	ldd	r25, Y+3	; 0x03
     ea8:	93 83       	std	Z+3, r25	; 0x03
     eaa:	82 83       	std	Z+2, r24	; 0x02
     eac:	21 15       	cp	r18, r1
     eae:	31 05       	cpc	r19, r1
     eb0:	29 f4       	brne	.+10     	; 0xebc <free+0x92>
     eb2:	f0 93 53 01 	sts	0x0153, r31	; 0x800153 <__flp+0x1>
     eb6:	e0 93 52 01 	sts	0x0152, r30	; 0x800152 <__flp>
     eba:	3d c0       	rjmp	.+122    	; 0xf36 <free+0x10c>
     ebc:	e9 01       	movw	r28, r18
     ebe:	fb 83       	std	Y+3, r31	; 0x03
     ec0:	ea 83       	std	Y+2, r30	; 0x02
     ec2:	49 91       	ld	r20, Y+
     ec4:	59 91       	ld	r21, Y+
     ec6:	c4 0f       	add	r28, r20
     ec8:	d5 1f       	adc	r29, r21
     eca:	ec 17       	cp	r30, r28
     ecc:	fd 07       	cpc	r31, r29
     ece:	61 f4       	brne	.+24     	; 0xee8 <free+0xbe>
     ed0:	80 81       	ld	r24, Z
     ed2:	91 81       	ldd	r25, Z+1	; 0x01
     ed4:	84 0f       	add	r24, r20
     ed6:	95 1f       	adc	r25, r21
     ed8:	02 96       	adiw	r24, 0x02	; 2
     eda:	e9 01       	movw	r28, r18
     edc:	99 83       	std	Y+1, r25	; 0x01
     ede:	88 83       	st	Y, r24
     ee0:	82 81       	ldd	r24, Z+2	; 0x02
     ee2:	93 81       	ldd	r25, Z+3	; 0x03
     ee4:	9b 83       	std	Y+3, r25	; 0x03
     ee6:	8a 83       	std	Y+2, r24	; 0x02
     ee8:	e0 e0       	ldi	r30, 0x00	; 0
     eea:	f0 e0       	ldi	r31, 0x00	; 0
     eec:	12 96       	adiw	r26, 0x02	; 2
     eee:	8d 91       	ld	r24, X+
     ef0:	9c 91       	ld	r25, X
     ef2:	13 97       	sbiw	r26, 0x03	; 3
     ef4:	00 97       	sbiw	r24, 0x00	; 0
     ef6:	19 f0       	breq	.+6      	; 0xefe <free+0xd4>
     ef8:	fd 01       	movw	r30, r26
     efa:	dc 01       	movw	r26, r24
     efc:	f7 cf       	rjmp	.-18     	; 0xeec <free+0xc2>
     efe:	8d 91       	ld	r24, X+
     f00:	9c 91       	ld	r25, X
     f02:	11 97       	sbiw	r26, 0x01	; 1
     f04:	9d 01       	movw	r18, r26
     f06:	2e 5f       	subi	r18, 0xFE	; 254
     f08:	3f 4f       	sbci	r19, 0xFF	; 255
     f0a:	82 0f       	add	r24, r18
     f0c:	93 1f       	adc	r25, r19
     f0e:	20 91 50 01 	lds	r18, 0x0150	; 0x800150 <__brkval>
     f12:	30 91 51 01 	lds	r19, 0x0151	; 0x800151 <__brkval+0x1>
     f16:	28 17       	cp	r18, r24
     f18:	39 07       	cpc	r19, r25
     f1a:	69 f4       	brne	.+26     	; 0xf36 <free+0x10c>
     f1c:	30 97       	sbiw	r30, 0x00	; 0
     f1e:	29 f4       	brne	.+10     	; 0xf2a <free+0x100>
     f20:	10 92 53 01 	sts	0x0153, r1	; 0x800153 <__flp+0x1>
     f24:	10 92 52 01 	sts	0x0152, r1	; 0x800152 <__flp>
     f28:	02 c0       	rjmp	.+4      	; 0xf2e <free+0x104>
     f2a:	13 82       	std	Z+3, r1	; 0x03
     f2c:	12 82       	std	Z+2, r1	; 0x02
     f2e:	b0 93 51 01 	sts	0x0151, r27	; 0x800151 <__brkval+0x1>
     f32:	a0 93 50 01 	sts	0x0150, r26	; 0x800150 <__brkval>
     f36:	df 91       	pop	r29
     f38:	cf 91       	pop	r28
     f3a:	08 95       	ret

00000f3c <realloc>:
     f3c:	a0 e0       	ldi	r26, 0x00	; 0
     f3e:	b0 e0       	ldi	r27, 0x00	; 0
     f40:	e4 ea       	ldi	r30, 0xA4	; 164
     f42:	f7 e0       	ldi	r31, 0x07	; 7
     f44:	0c 94 97 08 	jmp	0x112e	; 0x112e <__prologue_saves__+0x8>
     f48:	ec 01       	movw	r28, r24
     f4a:	00 97       	sbiw	r24, 0x00	; 0
     f4c:	21 f4       	brne	.+8      	; 0xf56 <realloc+0x1a>
     f4e:	cb 01       	movw	r24, r22
     f50:	0e 94 7d 06 	call	0xcfa	; 0xcfa <malloc>
     f54:	b4 c0       	rjmp	.+360    	; 0x10be <realloc+0x182>
     f56:	fc 01       	movw	r30, r24
     f58:	e6 0f       	add	r30, r22
     f5a:	f7 1f       	adc	r31, r23
     f5c:	9c 01       	movw	r18, r24
     f5e:	22 50       	subi	r18, 0x02	; 2
     f60:	31 09       	sbc	r19, r1
     f62:	e2 17       	cp	r30, r18
     f64:	f3 07       	cpc	r31, r19
     f66:	08 f4       	brcc	.+2      	; 0xf6a <realloc+0x2e>
     f68:	a8 c0       	rjmp	.+336    	; 0x10ba <realloc+0x17e>
     f6a:	d9 01       	movw	r26, r18
     f6c:	0d 91       	ld	r16, X+
     f6e:	1c 91       	ld	r17, X
     f70:	11 97       	sbiw	r26, 0x01	; 1
     f72:	06 17       	cp	r16, r22
     f74:	17 07       	cpc	r17, r23
     f76:	b0 f0       	brcs	.+44     	; 0xfa4 <realloc+0x68>
     f78:	05 30       	cpi	r16, 0x05	; 5
     f7a:	11 05       	cpc	r17, r1
     f7c:	08 f4       	brcc	.+2      	; 0xf80 <realloc+0x44>
     f7e:	9b c0       	rjmp	.+310    	; 0x10b6 <realloc+0x17a>
     f80:	c8 01       	movw	r24, r16
     f82:	04 97       	sbiw	r24, 0x04	; 4
     f84:	86 17       	cp	r24, r22
     f86:	97 07       	cpc	r25, r23
     f88:	08 f4       	brcc	.+2      	; 0xf8c <realloc+0x50>
     f8a:	95 c0       	rjmp	.+298    	; 0x10b6 <realloc+0x17a>
     f8c:	02 50       	subi	r16, 0x02	; 2
     f8e:	11 09       	sbc	r17, r1
     f90:	06 1b       	sub	r16, r22
     f92:	17 0b       	sbc	r17, r23
     f94:	01 93       	st	Z+, r16
     f96:	11 93       	st	Z+, r17
     f98:	6d 93       	st	X+, r22
     f9a:	7c 93       	st	X, r23
     f9c:	cf 01       	movw	r24, r30
     f9e:	0e 94 15 07 	call	0xe2a	; 0xe2a <free>
     fa2:	89 c0       	rjmp	.+274    	; 0x10b6 <realloc+0x17a>
     fa4:	5b 01       	movw	r10, r22
     fa6:	a0 1a       	sub	r10, r16
     fa8:	b1 0a       	sbc	r11, r17
     faa:	4c 01       	movw	r8, r24
     fac:	80 0e       	add	r8, r16
     fae:	91 1e       	adc	r9, r17
     fb0:	a0 91 52 01 	lds	r26, 0x0152	; 0x800152 <__flp>
     fb4:	b0 91 53 01 	lds	r27, 0x0153	; 0x800153 <__flp+0x1>
     fb8:	61 2c       	mov	r6, r1
     fba:	71 2c       	mov	r7, r1
     fbc:	e1 2c       	mov	r14, r1
     fbe:	f1 2c       	mov	r15, r1
     fc0:	10 97       	sbiw	r26, 0x00	; 0
     fc2:	09 f4       	brne	.+2      	; 0xfc6 <realloc+0x8a>
     fc4:	46 c0       	rjmp	.+140    	; 0x1052 <realloc+0x116>
     fc6:	8d 91       	ld	r24, X+
     fc8:	9c 91       	ld	r25, X
     fca:	11 97       	sbiw	r26, 0x01	; 1
     fcc:	a8 15       	cp	r26, r8
     fce:	b9 05       	cpc	r27, r9
     fd0:	b1 f5       	brne	.+108    	; 0x103e <realloc+0x102>
     fd2:	6c 01       	movw	r12, r24
     fd4:	42 e0       	ldi	r20, 0x02	; 2
     fd6:	c4 0e       	add	r12, r20
     fd8:	d1 1c       	adc	r13, r1
     fda:	ca 14       	cp	r12, r10
     fdc:	db 04       	cpc	r13, r11
     fde:	78 f1       	brcs	.+94     	; 0x103e <realloc+0x102>
     fe0:	4c 01       	movw	r8, r24
     fe2:	8a 18       	sub	r8, r10
     fe4:	9b 08       	sbc	r9, r11
     fe6:	64 01       	movw	r12, r8
     fe8:	42 e0       	ldi	r20, 0x02	; 2
     fea:	c4 0e       	add	r12, r20
     fec:	d1 1c       	adc	r13, r1
     fee:	12 96       	adiw	r26, 0x02	; 2
     ff0:	bc 90       	ld	r11, X
     ff2:	12 97       	sbiw	r26, 0x02	; 2
     ff4:	13 96       	adiw	r26, 0x03	; 3
     ff6:	ac 91       	ld	r26, X
     ff8:	b5 e0       	ldi	r27, 0x05	; 5
     ffa:	cb 16       	cp	r12, r27
     ffc:	d1 04       	cpc	r13, r1
     ffe:	40 f0       	brcs	.+16     	; 0x1010 <realloc+0xd4>
    1000:	b2 82       	std	Z+2, r11	; 0x02
    1002:	a3 83       	std	Z+3, r26	; 0x03
    1004:	91 82       	std	Z+1, r9	; 0x01
    1006:	80 82       	st	Z, r8
    1008:	d9 01       	movw	r26, r18
    100a:	6d 93       	st	X+, r22
    100c:	7c 93       	st	X, r23
    100e:	09 c0       	rjmp	.+18     	; 0x1022 <realloc+0xe6>
    1010:	0e 5f       	subi	r16, 0xFE	; 254
    1012:	1f 4f       	sbci	r17, 0xFF	; 255
    1014:	80 0f       	add	r24, r16
    1016:	91 1f       	adc	r25, r17
    1018:	f9 01       	movw	r30, r18
    101a:	91 83       	std	Z+1, r25	; 0x01
    101c:	80 83       	st	Z, r24
    101e:	eb 2d       	mov	r30, r11
    1020:	fa 2f       	mov	r31, r26
    1022:	e1 14       	cp	r14, r1
    1024:	f1 04       	cpc	r15, r1
    1026:	31 f0       	breq	.+12     	; 0x1034 <realloc+0xf8>
    1028:	d7 01       	movw	r26, r14
    102a:	13 96       	adiw	r26, 0x03	; 3
    102c:	fc 93       	st	X, r31
    102e:	ee 93       	st	-X, r30
    1030:	12 97       	sbiw	r26, 0x02	; 2
    1032:	41 c0       	rjmp	.+130    	; 0x10b6 <realloc+0x17a>
    1034:	f0 93 53 01 	sts	0x0153, r31	; 0x800153 <__flp+0x1>
    1038:	e0 93 52 01 	sts	0x0152, r30	; 0x800152 <__flp>
    103c:	3c c0       	rjmp	.+120    	; 0x10b6 <realloc+0x17a>
    103e:	68 16       	cp	r6, r24
    1040:	79 06       	cpc	r7, r25
    1042:	08 f4       	brcc	.+2      	; 0x1046 <realloc+0x10a>
    1044:	3c 01       	movw	r6, r24
    1046:	7d 01       	movw	r14, r26
    1048:	12 96       	adiw	r26, 0x02	; 2
    104a:	0d 90       	ld	r0, X+
    104c:	bc 91       	ld	r27, X
    104e:	a0 2d       	mov	r26, r0
    1050:	b7 cf       	rjmp	.-146    	; 0xfc0 <realloc+0x84>
    1052:	80 91 50 01 	lds	r24, 0x0150	; 0x800150 <__brkval>
    1056:	90 91 51 01 	lds	r25, 0x0151	; 0x800151 <__brkval+0x1>
    105a:	88 16       	cp	r8, r24
    105c:	99 06       	cpc	r9, r25
    105e:	e1 f4       	brne	.+56     	; 0x1098 <realloc+0x15c>
    1060:	66 16       	cp	r6, r22
    1062:	77 06       	cpc	r7, r23
    1064:	c8 f4       	brcc	.+50     	; 0x1098 <realloc+0x15c>
    1066:	80 91 00 01 	lds	r24, 0x0100	; 0x800100 <__data_start>
    106a:	90 91 01 01 	lds	r25, 0x0101	; 0x800101 <__data_start+0x1>
    106e:	00 97       	sbiw	r24, 0x00	; 0
    1070:	41 f4       	brne	.+16     	; 0x1082 <realloc+0x146>
    1072:	8d b7       	in	r24, 0x3d	; 61
    1074:	9e b7       	in	r25, 0x3e	; 62
    1076:	40 91 04 01 	lds	r20, 0x0104	; 0x800104 <__malloc_margin>
    107a:	50 91 05 01 	lds	r21, 0x0105	; 0x800105 <__malloc_margin+0x1>
    107e:	84 1b       	sub	r24, r20
    1080:	95 0b       	sbc	r25, r21
    1082:	e8 17       	cp	r30, r24
    1084:	f9 07       	cpc	r31, r25
    1086:	c8 f4       	brcc	.+50     	; 0x10ba <realloc+0x17e>
    1088:	f0 93 51 01 	sts	0x0151, r31	; 0x800151 <__brkval+0x1>
    108c:	e0 93 50 01 	sts	0x0150, r30	; 0x800150 <__brkval>
    1090:	f9 01       	movw	r30, r18
    1092:	71 83       	std	Z+1, r23	; 0x01
    1094:	60 83       	st	Z, r22
    1096:	0f c0       	rjmp	.+30     	; 0x10b6 <realloc+0x17a>
    1098:	cb 01       	movw	r24, r22
    109a:	0e 94 7d 06 	call	0xcfa	; 0xcfa <malloc>
    109e:	7c 01       	movw	r14, r24
    10a0:	00 97       	sbiw	r24, 0x00	; 0
    10a2:	59 f0       	breq	.+22     	; 0x10ba <realloc+0x17e>
    10a4:	a8 01       	movw	r20, r16
    10a6:	be 01       	movw	r22, r28
    10a8:	0e 94 71 08 	call	0x10e2	; 0x10e2 <memcpy>
    10ac:	ce 01       	movw	r24, r28
    10ae:	0e 94 15 07 	call	0xe2a	; 0xe2a <free>
    10b2:	c7 01       	movw	r24, r14
    10b4:	04 c0       	rjmp	.+8      	; 0x10be <realloc+0x182>
    10b6:	ce 01       	movw	r24, r28
    10b8:	02 c0       	rjmp	.+4      	; 0x10be <realloc+0x182>
    10ba:	80 e0       	ldi	r24, 0x00	; 0
    10bc:	90 e0       	ldi	r25, 0x00	; 0
    10be:	cd b7       	in	r28, 0x3d	; 61
    10c0:	de b7       	in	r29, 0x3e	; 62
    10c2:	ee e0       	ldi	r30, 0x0E	; 14
    10c4:	0c 94 b3 08 	jmp	0x1166	; 0x1166 <__epilogue_restores__+0x8>

000010c8 <memcmp>:
    10c8:	fb 01       	movw	r30, r22
    10ca:	dc 01       	movw	r26, r24
    10cc:	04 c0       	rjmp	.+8      	; 0x10d6 <memcmp+0xe>
    10ce:	8d 91       	ld	r24, X+
    10d0:	01 90       	ld	r0, Z+
    10d2:	80 19       	sub	r24, r0
    10d4:	21 f4       	brne	.+8      	; 0x10de <memcmp+0x16>
    10d6:	41 50       	subi	r20, 0x01	; 1
    10d8:	50 40       	sbci	r21, 0x00	; 0
    10da:	c8 f7       	brcc	.-14     	; 0x10ce <memcmp+0x6>
    10dc:	88 1b       	sub	r24, r24
    10de:	99 0b       	sbc	r25, r25
    10e0:	08 95       	ret

000010e2 <memcpy>:
    10e2:	fb 01       	movw	r30, r22
    10e4:	dc 01       	movw	r26, r24
    10e6:	02 c0       	rjmp	.+4      	; 0x10ec <memcpy+0xa>
    10e8:	01 90       	ld	r0, Z+
    10ea:	0d 92       	st	X+, r0
    10ec:	41 50       	subi	r20, 0x01	; 1
    10ee:	50 40       	sbci	r21, 0x00	; 0
    10f0:	d8 f7       	brcc	.-10     	; 0x10e8 <memcpy+0x6>
    10f2:	08 95       	ret

000010f4 <memmove>:
    10f4:	68 17       	cp	r22, r24
    10f6:	79 07       	cpc	r23, r25
    10f8:	68 f4       	brcc	.+26     	; 0x1114 <memmove+0x20>
    10fa:	fb 01       	movw	r30, r22
    10fc:	dc 01       	movw	r26, r24
    10fe:	e4 0f       	add	r30, r20
    1100:	f5 1f       	adc	r31, r21
    1102:	a4 0f       	add	r26, r20
    1104:	b5 1f       	adc	r27, r21
    1106:	02 c0       	rjmp	.+4      	; 0x110c <memmove+0x18>
    1108:	02 90       	ld	r0, -Z
    110a:	0e 92       	st	-X, r0
    110c:	41 50       	subi	r20, 0x01	; 1
    110e:	50 40       	sbci	r21, 0x00	; 0
    1110:	d8 f7       	brcc	.-10     	; 0x1108 <memmove+0x14>
    1112:	08 95       	ret
    1114:	0c 94 71 08 	jmp	0x10e2	; 0x10e2 <memcpy>

00001118 <memset>:
    1118:	dc 01       	movw	r26, r24
    111a:	01 c0       	rjmp	.+2      	; 0x111e <memset+0x6>
    111c:	6d 93       	st	X+, r22
    111e:	41 50       	subi	r20, 0x01	; 1
    1120:	50 40       	sbci	r21, 0x00	; 0
    1122:	e0 f7       	brcc	.-8      	; 0x111c <memset+0x4>
    1124:	08 95       	ret

00001126 <__prologue_saves__>:
    1126:	2f 92       	push	r2
    1128:	3f 92       	push	r3
    112a:	4f 92       	push	r4
    112c:	5f 92       	push	r5
    112e:	6f 92       	push	r6
    1130:	7f 92       	push	r7
    1132:	8f 92       	push	r8
    1134:	9f 92       	push	r9
    1136:	af 92       	push	r10
    1138:	bf 92       	push	r11
    113a:	cf 92       	push	r12
    113c:	df 92       	push	r13
    113e:	ef 92       	push	r14
    1140:	ff 92       	push	r15
    1142:	0f 93       	push	r16
    1144:	1f 93       	push	r17
    1146:	cf 93       	push	r28
    1148:	df 93       	push	r29
    114a:	cd b7       	in	r28, 0x3d	; 61
    114c:	de b7       	in	r29, 0x3e	; 62
    114e:	ca 1b       	sub	r28, r26
    1150:	db 0b       	sbc	r29, r27
    1152:	0f b6       	in	r0, 0x3f	; 63
    1154:	f8 94       	cli
    1156:	de bf       	out	0x3e, r29	; 62
    1158:	0f be       	out	0x3f, r0	; 63
    115a:	cd bf       	out	0x3d, r28	; 61
    115c:	09 94       	ijmp

0000115e <__epilogue_restores__>:
    115e:	2a 88       	ldd	r2, Y+18	; 0x12
    1160:	39 88       	ldd	r3, Y+17	; 0x11
    1162:	48 88       	ldd	r4, Y+16	; 0x10
    1164:	5f 84       	ldd	r5, Y+15	; 0x0f
    1166:	6e 84       	ldd	r6, Y+14	; 0x0e
    1168:	7d 84       	ldd	r7, Y+13	; 0x0d
    116a:	8c 84       	ldd	r8, Y+12	; 0x0c
    116c:	9b 84       	ldd	r9, Y+11	; 0x0b
    116e:	aa 84       	ldd	r10, Y+10	; 0x0a
    1170:	b9 84       	ldd	r11, Y+9	; 0x09
    1172:	c8 84       	ldd	r12, Y+8	; 0x08
    1174:	df 80       	ldd	r13, Y+7	; 0x07
    1176:	ee 80       	ldd	r14, Y+6	; 0x06
    1178:	fd 80       	ldd	r15, Y+5	; 0x05
    117a:	0c 81       	ldd	r16, Y+4	; 0x04
    117c:	1b 81       	ldd	r17, Y+3	; 0x03
    117e:	aa 81       	ldd	r26, Y+2	; 0x02
    1180:	b9 81       	ldd	r27, Y+1	; 0x01
    1182:	ce 0f       	add	r28, r30
    1184:	d1 1d       	adc	r29, r1
    1186:	0f b6       	in	r0, 0x3f	; 63
    1188:	f8 94       	cli
    118a:	de bf       	out	0x3e, r29	; 62
    118c:	0f be       	out	0x3f, r0	; 63
    118e:	cd bf       	out	0x3d, r28	; 61
    1190:	ed 01       	movw	r28, r26
    1192:	08 95       	ret

00001194 <__do_global_dtors>:
    1194:	10 e0       	ldi	r17, 0x00	; 0
    1196:	c5 e3       	ldi	r28, 0x35	; 53
    1198:	d0 e0       	ldi	r29, 0x00	; 0
    119a:	04 c0       	rjmp	.+8      	; 0x11a4 <__do_global_dtors+0x10>
    119c:	fe 01       	movw	r30, r28
    119e:	0e 94 68 06 	call	0xcd0	; 0xcd0 <__tablejump2__>
    11a2:	21 96       	adiw	r28, 0x01	; 1
    11a4:	c6 33       	cpi	r28, 0x36	; 54
    11a6:	d1 07       	cpc	r29, r17
    11a8:	c9 f7       	brne	.-14     	; 0x119c <__do_global_dtors+0x8>
    11aa:	f8 94       	cli

000011ac <__stop_program>:
    11ac:	ff cf       	rjmp	.-2      	; 0x11ac <__stop_program>
